Component: ARM Compiler 5.06 update 6 (build 750) Tool: armlink [4d35ed]

==============================================================================

Section Cross References

    main.o(i.main) refers to _printf_percent.o(.ARM.Collect$$_printf_percent$$00000000) for _printf_percent
    main.o(i.main) refers to _printf_d.o(.ARM.Collect$$_printf_percent$$00000009) for _printf_d
    main.o(i.main) refers to _printf_dec.o(.text) for _printf_int_dec
    main.o(i.main) refers to main.o(i.sys_init) for sys_init
    main.o(i.main) refers to view.o(i.View_init) for View_init
    main.o(i.main) refers to lcd.o(i.LCD_ShowString) for LCD_ShowString
    main.o(i.main) refers to noretval__2printf.o(.text) for __2printf
    main.o(i.main) refers to led_driver.o(i.LED_test) for LED_test
    main.o(i.main) refers to clk_timer.o(i.polling) for polling
    main.o(i.sys_init) refers to clk_timer.o(i.HSE_SetSysClock) for HSE_SetSysClock
    main.o(i.sys_init) refers to clk_timer.o(i.SysTick_init) for SysTick_init
    main.o(i.sys_init) refers to usart.o(i.Debug_USART_Config) for Debug_USART_Config
    main.o(i.sys_init) refers to led_driver.o(i.LED_Init) for LED_Init
    main.o(i.sys_init) refers to keyboard_driver.o(i.key_init) for key_init
    main.o(i.sys_init) refers to head.o(i.my_head_init) for my_head_init
    main.o(i.sys_init) refers to lcd.o(i.LCD_Init) for LCD_Init
    main.o(i.sys_init) refers to rtc.o(i.rtc_init) for rtc_init
    main.o(i.sys_init) refers to sys.o(i.RNG_Init) for RNG_Init
    main.o(i.sys_init) refers to w25q16.o(i.W25QXX_Init) for W25QXX_Init
    main.o(i.sys_init) refers to main.o(i.task_init) for task_init
    main.o(i.task_init) refers to keyboard_driver.o(i.key_task_init) for key_task_init
    system_stm32f4xx.o(i.SystemCoreClockUpdate) refers to system_stm32f4xx.o(.data) for .data
    system_stm32f4xx.o(i.SystemInit) refers to system_stm32f4xx.o(i.SetSysClock) for SetSysClock
    startup_stm32f40_41xxx.o(STACK) refers (Special) to heapauxi.o(.text) for __use_two_region_memory
    startup_stm32f40_41xxx.o(HEAP) refers (Special) to heapauxi.o(.text) for __use_two_region_memory
    startup_stm32f40_41xxx.o(RESET) refers (Special) to heapauxi.o(.text) for __use_two_region_memory
    startup_stm32f40_41xxx.o(RESET) refers to startup_stm32f40_41xxx.o(STACK) for __initial_sp
    startup_stm32f40_41xxx.o(RESET) refers to startup_stm32f40_41xxx.o(.text) for Reset_Handler
    startup_stm32f40_41xxx.o(RESET) refers to stm32f4xx_it.o(i.NMI_Handler) for NMI_Handler
    startup_stm32f40_41xxx.o(RESET) refers to stm32f4xx_it.o(i.HardFault_Handler) for HardFault_Handler
    startup_stm32f40_41xxx.o(RESET) refers to stm32f4xx_it.o(i.MemManage_Handler) for MemManage_Handler
    startup_stm32f40_41xxx.o(RESET) refers to stm32f4xx_it.o(i.BusFault_Handler) for BusFault_Handler
    startup_stm32f40_41xxx.o(RESET) refers to stm32f4xx_it.o(i.UsageFault_Handler) for UsageFault_Handler
    startup_stm32f40_41xxx.o(RESET) refers to stm32f4xx_it.o(i.SVC_Handler) for SVC_Handler
    startup_stm32f40_41xxx.o(RESET) refers to stm32f4xx_it.o(i.DebugMon_Handler) for DebugMon_Handler
    startup_stm32f40_41xxx.o(RESET) refers to stm32f4xx_it.o(i.PendSV_Handler) for PendSV_Handler
    startup_stm32f40_41xxx.o(RESET) refers to clk_timer.o(i.SysTick_Handler) for SysTick_Handler
    startup_stm32f40_41xxx.o(RESET) refers to wwdg.o(i.WWDG_IRQHandler) for WWDG_IRQHandler
    startup_stm32f40_41xxx.o(RESET) refers to rtc.o(i.RTC_WKUP_IRQHandler) for RTC_WKUP_IRQHandler
    startup_stm32f40_41xxx.o(RESET) refers to gpio.o(i.EXTI0_IRQHandler) for EXTI0_IRQHandler
    startup_stm32f40_41xxx.o(RESET) refers to usart.o(i.USART1_IRQHandler) for USART1_IRQHandler
    startup_stm32f40_41xxx.o(RESET) refers to rtc.o(i.RTC_Alarm_IRQHandler) for RTC_Alarm_IRQHandler
    startup_stm32f40_41xxx.o(RESET) refers to sdio_sdcard.o(i.SDIO_IRQHandler) for SDIO_IRQHandler
    startup_stm32f40_41xxx.o(.text) refers (Special) to heapauxi.o(.text) for __use_two_region_memory
    startup_stm32f40_41xxx.o(.text) refers to system_stm32f4xx.o(i.SystemInit) for SystemInit
    startup_stm32f40_41xxx.o(.text) refers to __main.o(!!!main) for __main
    startup_stm32f40_41xxx.o(.text) refers to startup_stm32f40_41xxx.o(HEAP) for Heap_Mem
    startup_stm32f40_41xxx.o(.text) refers to startup_stm32f40_41xxx.o(STACK) for Stack_Mem
    stm32f4xx_fsmc.o(i.FSMC_NORSRAMStructInit) refers to stm32f4xx_fsmc.o(.constdata) for .constdata
    stm32f4xx_gpio.o(i.GPIO_DeInit) refers to stm32f4xx_rcc.o(i.RCC_AHB1PeriphResetCmd) for RCC_AHB1PeriphResetCmd
    stm32f4xx_pwr.o(i.PWR_DeInit) refers to stm32f4xx_rcc.o(i.RCC_APB1PeriphResetCmd) for RCC_APB1PeriphResetCmd
    stm32f4xx_rcc.o(i.RCC_GetClocksFreq) refers to stm32f4xx_rcc.o(.data) for .data
    stm32f4xx_rcc.o(i.RCC_WaitForHSEStartUp) refers to stm32f4xx_rcc.o(i.RCC_GetFlagStatus) for RCC_GetFlagStatus
    stm32f4xx_rng.o(i.RNG_DeInit) refers to stm32f4xx_rcc.o(i.RCC_AHB2PeriphResetCmd) for RCC_AHB2PeriphResetCmd
    stm32f4xx_rtc.o(i.RTC_CoarseCalibCmd) refers to stm32f4xx_rtc.o(i.RTC_EnterInitMode) for RTC_EnterInitMode
    stm32f4xx_rtc.o(i.RTC_CoarseCalibCmd) refers to stm32f4xx_rtc.o(i.RTC_ExitInitMode) for RTC_ExitInitMode
    stm32f4xx_rtc.o(i.RTC_CoarseCalibConfig) refers to stm32f4xx_rtc.o(i.RTC_EnterInitMode) for RTC_EnterInitMode
    stm32f4xx_rtc.o(i.RTC_CoarseCalibConfig) refers to stm32f4xx_rtc.o(i.RTC_ExitInitMode) for RTC_ExitInitMode
    stm32f4xx_rtc.o(i.RTC_DeInit) refers to stm32f4xx_rtc.o(i.RTC_EnterInitMode) for RTC_EnterInitMode
    stm32f4xx_rtc.o(i.RTC_DeInit) refers to stm32f4xx_rtc.o(i.RTC_WaitForSynchro) for RTC_WaitForSynchro
    stm32f4xx_rtc.o(i.RTC_GetAlarm) refers to stm32f4xx_rtc.o(i.RTC_Bcd2ToByte) for RTC_Bcd2ToByte
    stm32f4xx_rtc.o(i.RTC_GetDate) refers to stm32f4xx_rtc.o(i.RTC_Bcd2ToByte) for RTC_Bcd2ToByte
    stm32f4xx_rtc.o(i.RTC_GetTime) refers to stm32f4xx_rtc.o(i.RTC_Bcd2ToByte) for RTC_Bcd2ToByte
    stm32f4xx_rtc.o(i.RTC_GetTimeStamp) refers to stm32f4xx_rtc.o(i.RTC_Bcd2ToByte) for RTC_Bcd2ToByte
    stm32f4xx_rtc.o(i.RTC_Init) refers to stm32f4xx_rtc.o(i.RTC_EnterInitMode) for RTC_EnterInitMode
    stm32f4xx_rtc.o(i.RTC_Init) refers to stm32f4xx_rtc.o(i.RTC_ExitInitMode) for RTC_ExitInitMode
    stm32f4xx_rtc.o(i.RTC_RefClockCmd) refers to stm32f4xx_rtc.o(i.RTC_EnterInitMode) for RTC_EnterInitMode
    stm32f4xx_rtc.o(i.RTC_RefClockCmd) refers to stm32f4xx_rtc.o(i.RTC_ExitInitMode) for RTC_ExitInitMode
    stm32f4xx_rtc.o(i.RTC_SetAlarm) refers to stm32f4xx_rtc.o(i.RTC_Bcd2ToByte) for RTC_Bcd2ToByte
    stm32f4xx_rtc.o(i.RTC_SetAlarm) refers to stm32f4xx_rtc.o(i.RTC_ByteToBcd2) for RTC_ByteToBcd2
    stm32f4xx_rtc.o(i.RTC_SetDate) refers to stm32f4xx_rtc.o(i.RTC_Bcd2ToByte) for RTC_Bcd2ToByte
    stm32f4xx_rtc.o(i.RTC_SetDate) refers to stm32f4xx_rtc.o(i.RTC_ByteToBcd2) for RTC_ByteToBcd2
    stm32f4xx_rtc.o(i.RTC_SetDate) refers to stm32f4xx_rtc.o(i.RTC_EnterInitMode) for RTC_EnterInitMode
    stm32f4xx_rtc.o(i.RTC_SetDate) refers to stm32f4xx_rtc.o(i.RTC_ExitInitMode) for RTC_ExitInitMode
    stm32f4xx_rtc.o(i.RTC_SetDate) refers to stm32f4xx_rtc.o(i.RTC_WaitForSynchro) for RTC_WaitForSynchro
    stm32f4xx_rtc.o(i.RTC_SetTime) refers to stm32f4xx_rtc.o(i.RTC_Bcd2ToByte) for RTC_Bcd2ToByte
    stm32f4xx_rtc.o(i.RTC_SetTime) refers to stm32f4xx_rtc.o(i.RTC_ByteToBcd2) for RTC_ByteToBcd2
    stm32f4xx_rtc.o(i.RTC_SetTime) refers to stm32f4xx_rtc.o(i.RTC_EnterInitMode) for RTC_EnterInitMode
    stm32f4xx_rtc.o(i.RTC_SetTime) refers to stm32f4xx_rtc.o(i.RTC_ExitInitMode) for RTC_ExitInitMode
    stm32f4xx_rtc.o(i.RTC_SetTime) refers to stm32f4xx_rtc.o(i.RTC_WaitForSynchro) for RTC_WaitForSynchro
    stm32f4xx_rtc.o(i.RTC_SynchroShiftConfig) refers to stm32f4xx_rtc.o(i.RTC_WaitForSynchro) for RTC_WaitForSynchro
    stm32f4xx_spi.o(i.SPI_I2S_DeInit) refers to stm32f4xx_rcc.o(i.RCC_APB2PeriphResetCmd) for RCC_APB2PeriphResetCmd
    stm32f4xx_spi.o(i.SPI_I2S_DeInit) refers to stm32f4xx_rcc.o(i.RCC_APB1PeriphResetCmd) for RCC_APB1PeriphResetCmd
    stm32f4xx_syscfg.o(i.SYSCFG_DeInit) refers to stm32f4xx_rcc.o(i.RCC_APB2PeriphResetCmd) for RCC_APB2PeriphResetCmd
    stm32f4xx_tim.o(i.TIM_DeInit) refers to stm32f4xx_rcc.o(i.RCC_APB2PeriphResetCmd) for RCC_APB2PeriphResetCmd
    stm32f4xx_tim.o(i.TIM_DeInit) refers to stm32f4xx_rcc.o(i.RCC_APB1PeriphResetCmd) for RCC_APB1PeriphResetCmd
    stm32f4xx_tim.o(i.TIM_ETRClockMode1Config) refers to stm32f4xx_tim.o(i.TIM_ETRConfig) for TIM_ETRConfig
    stm32f4xx_tim.o(i.TIM_ETRClockMode2Config) refers to stm32f4xx_tim.o(i.TIM_ETRConfig) for TIM_ETRConfig
    stm32f4xx_tim.o(i.TIM_ICInit) refers to stm32f4xx_tim.o(i.TI4_Config) for TI4_Config
    stm32f4xx_tim.o(i.TIM_ICInit) refers to stm32f4xx_tim.o(i.TIM_SetIC4Prescaler) for TIM_SetIC4Prescaler
    stm32f4xx_tim.o(i.TIM_ICInit) refers to stm32f4xx_tim.o(i.TI1_Config) for TI1_Config
    stm32f4xx_tim.o(i.TIM_ICInit) refers to stm32f4xx_tim.o(i.TIM_SetIC1Prescaler) for TIM_SetIC1Prescaler
    stm32f4xx_tim.o(i.TIM_ICInit) refers to stm32f4xx_tim.o(i.TI2_Config) for TI2_Config
    stm32f4xx_tim.o(i.TIM_ICInit) refers to stm32f4xx_tim.o(i.TIM_SetIC2Prescaler) for TIM_SetIC2Prescaler
    stm32f4xx_tim.o(i.TIM_ICInit) refers to stm32f4xx_tim.o(i.TI3_Config) for TI3_Config
    stm32f4xx_tim.o(i.TIM_ICInit) refers to stm32f4xx_tim.o(i.TIM_SetIC3Prescaler) for TIM_SetIC3Prescaler
    stm32f4xx_tim.o(i.TIM_ITRxExternalClockConfig) refers to stm32f4xx_tim.o(i.TIM_SelectInputTrigger) for TIM_SelectInputTrigger
    stm32f4xx_tim.o(i.TIM_PWMIConfig) refers to stm32f4xx_tim.o(i.TI2_Config) for TI2_Config
    stm32f4xx_tim.o(i.TIM_PWMIConfig) refers to stm32f4xx_tim.o(i.TIM_SetIC2Prescaler) for TIM_SetIC2Prescaler
    stm32f4xx_tim.o(i.TIM_PWMIConfig) refers to stm32f4xx_tim.o(i.TI1_Config) for TI1_Config
    stm32f4xx_tim.o(i.TIM_PWMIConfig) refers to stm32f4xx_tim.o(i.TIM_SetIC1Prescaler) for TIM_SetIC1Prescaler
    stm32f4xx_tim.o(i.TIM_TIxExternalClockConfig) refers to stm32f4xx_tim.o(i.TI1_Config) for TI1_Config
    stm32f4xx_tim.o(i.TIM_TIxExternalClockConfig) refers to stm32f4xx_tim.o(i.TIM_SelectInputTrigger) for TIM_SelectInputTrigger
    stm32f4xx_tim.o(i.TIM_TIxExternalClockConfig) refers to stm32f4xx_tim.o(i.TI2_Config) for TI2_Config
    stm32f4xx_usart.o(i.USART_DeInit) refers to stm32f4xx_rcc.o(i.RCC_APB2PeriphResetCmd) for RCC_APB2PeriphResetCmd
    stm32f4xx_usart.o(i.USART_DeInit) refers to stm32f4xx_rcc.o(i.RCC_APB1PeriphResetCmd) for RCC_APB1PeriphResetCmd
    stm32f4xx_usart.o(i.USART_Init) refers to stm32f4xx_rcc.o(i.RCC_GetClocksFreq) for RCC_GetClocksFreq
    stm32f4xx_wwdg.o(i.WWDG_DeInit) refers to stm32f4xx_rcc.o(i.RCC_APB1PeriphResetCmd) for RCC_APB1PeriphResetCmd
    stm32f4xx_sdio.o(i.SDIO_DeInit) refers to stm32f4xx_rcc.o(i.RCC_APB2PeriphResetCmd) for RCC_APB2PeriphResetCmd
    clk_timer.o(i.Create_task) refers to head.o(i.my_malloc) for my_malloc
    clk_timer.o(i.Create_task) refers to clk_timer.o(i.insert_task) for insert_task
    clk_timer.o(i.Create_task) refers to clk_timer.o(.data) for .data
    clk_timer.o(i.HSE_SetSysClock) refers to stm32f4xx_rcc.o(i.RCC_HSEConfig) for RCC_HSEConfig
    clk_timer.o(i.HSE_SetSysClock) refers to stm32f4xx_rcc.o(i.RCC_WaitForHSEStartUp) for RCC_WaitForHSEStartUp
    clk_timer.o(i.HSE_SetSysClock) refers to stm32f4xx_rcc.o(i.RCC_HCLKConfig) for RCC_HCLKConfig
    clk_timer.o(i.HSE_SetSysClock) refers to stm32f4xx_rcc.o(i.RCC_PCLK2Config) for RCC_PCLK2Config
    clk_timer.o(i.HSE_SetSysClock) refers to stm32f4xx_rcc.o(i.RCC_PCLK1Config) for RCC_PCLK1Config
    clk_timer.o(i.HSE_SetSysClock) refers to stm32f4xx_rcc.o(i.RCC_PLLConfig) for RCC_PLLConfig
    clk_timer.o(i.HSE_SetSysClock) refers to stm32f4xx_rcc.o(i.RCC_PLLCmd) for RCC_PLLCmd
    clk_timer.o(i.HSE_SetSysClock) refers to stm32f4xx_rcc.o(i.RCC_GetFlagStatus) for RCC_GetFlagStatus
    clk_timer.o(i.HSE_SetSysClock) refers to stm32f4xx_rcc.o(i.RCC_SYSCLKConfig) for RCC_SYSCLKConfig
    clk_timer.o(i.HSE_SetSysClock) refers to stm32f4xx_rcc.o(i.RCC_GetSYSCLKSource) for RCC_GetSYSCLKSource
    clk_timer.o(i.SysTick_Handler) refers to clk_timer.o(i.check_timeout) for check_timeout
    clk_timer.o(i.SysTick_Handler) refers to clk_timer.o(i.deal_overflow) for deal_overflow
    clk_timer.o(i.SysTick_Handler) refers to clk_timer.o(.data) for .data
    clk_timer.o(i.SysTick_Handler) refers to clk_timer.o(.bss) for .bss
    clk_timer.o(i.SysTick_init) refers to system_stm32f4xx.o(.data) for SystemCoreClock
    clk_timer.o(i.check_runout) refers to clk_timer.o(i.insert_task) for insert_task
    clk_timer.o(i.check_runout) refers to head.o(i.my_free) for my_free
    clk_timer.o(i.check_runout) refers to clk_timer.o(.data) for .data
    clk_timer.o(i.check_tick) refers to clk_timer.o(.data) for .data
    clk_timer.o(i.check_timeout) refers to clk_timer.o(i.insert_execute) for insert_execute
    clk_timer.o(i.check_timeout) refers to clk_timer.o(.data) for .data
    clk_timer.o(i.deal_overflow) refers to clk_timer.o(i.insert_task) for insert_task
    clk_timer.o(i.deal_overflow) refers to clk_timer.o(.data) for .data
    clk_timer.o(i.delay_ms) refers to clk_timer.o(i.polling) for polling
    clk_timer.o(i.delay_ms) refers to clk_timer.o(.data) for .data
    clk_timer.o(i.delete_task) refers to clk_timer.o(i.delete_task_head) for delete_task_head
    clk_timer.o(i.delete_task) refers to clk_timer.o(.data) for .data
    clk_timer.o(i.delete_task) refers to clk_timer.o(.bss) for .bss
    clk_timer.o(i.delete_task_head) refers to _printf_percent.o(.ARM.Collect$$_printf_percent$$00000000) for _printf_percent
    clk_timer.o(i.delete_task_head) refers to _printf_d.o(.ARM.Collect$$_printf_percent$$00000009) for _printf_d
    clk_timer.o(i.delete_task_head) refers to _printf_s.o(.ARM.Collect$$_printf_percent$$00000014) for _printf_s
    clk_timer.o(i.delete_task_head) refers to _printf_dec.o(.text) for _printf_int_dec
    clk_timer.o(i.delete_task_head) refers to _printf_str.o(.text) for _printf_str
    clk_timer.o(i.delete_task_head) refers to noretval__2printf.o(.text) for __2printf
    clk_timer.o(i.insert_execute) refers to clk_timer.o(i.insert_task) for insert_task
    clk_timer.o(i.insert_task) refers to _printf_percent.o(.ARM.Collect$$_printf_percent$$00000000) for _printf_percent
    clk_timer.o(i.insert_task) refers to _printf_d.o(.ARM.Collect$$_printf_percent$$00000009) for _printf_d
    clk_timer.o(i.insert_task) refers to _printf_s.o(.ARM.Collect$$_printf_percent$$00000014) for _printf_s
    clk_timer.o(i.insert_task) refers to _printf_dec.o(.text) for _printf_int_dec
    clk_timer.o(i.insert_task) refers to _printf_str.o(.text) for _printf_str
    clk_timer.o(i.insert_task) refers to noretval__2printf.o(.text) for __2printf
    clk_timer.o(i.insert_task) refers to clk_timer.o(i.insert_task_list) for insert_task_list
    clk_timer.o(i.insert_task) refers to clk_timer.o(.data) for .data
    clk_timer.o(i.insert_task) refers to clk_timer.o(.bss) for .bss
    clk_timer.o(i.insert_task_list) refers to _printf_percent.o(.ARM.Collect$$_printf_percent$$00000000) for _printf_percent
    clk_timer.o(i.insert_task_list) refers to _printf_d.o(.ARM.Collect$$_printf_percent$$00000009) for _printf_d
    clk_timer.o(i.insert_task_list) refers to _printf_s.o(.ARM.Collect$$_printf_percent$$00000014) for _printf_s
    clk_timer.o(i.insert_task_list) refers to _printf_dec.o(.text) for _printf_int_dec
    clk_timer.o(i.insert_task_list) refers to _printf_str.o(.text) for _printf_str
    clk_timer.o(i.insert_task_list) refers to clk_timer.o(i.insert_task_tail) for insert_task_tail
    clk_timer.o(i.insert_task_list) refers to noretval__2printf.o(.text) for __2printf
    clk_timer.o(i.insert_task_list) refers to clk_timer.o(.data) for .data
    clk_timer.o(i.ms_10) refers to clk_timer.o(.data) for .data
    clk_timer.o(i.ms_100) refers to clk_timer.o(.data) for .data
    clk_timer.o(i.polling) refers to clk_timer.o(i.ms_10) for ms_10
    clk_timer.o(i.polling) refers to clk_timer.o(i.check_timeout) for check_timeout
    clk_timer.o(i.polling) refers to clk_timer.o(i.ms_100) for ms_100
    clk_timer.o(i.polling) refers to mon.o(i.Mon_polling) for Mon_polling
    clk_timer.o(i.polling) refers to clk_timer.o(i.check_runout) for check_runout
    clk_timer.o(i.polling) refers to wwdg.o(i.WWDG_feed) for WWDG_feed
    clk_timer.o(i.polling) refers to clk_timer.o(.data) for .data
    clk_timer.o(i.task_arg_init) refers to rt_memclr_w.o(.text) for __aeabi_memclr4
    clk_timer.o(i.task_arg_init) refers to clk_timer.o(.bss) for .bss
    clk_timer.o(i.task_arg_init) refers to clk_timer.o(.data) for .data
    gpio.o(i.EXTI0_IRQHandler) refers to noretval__2printf.o(.text) for __2printf
    gpio.o(i.EXTI0_IRQHandler) refers to stm32f4xx_exti.o(i.EXTI_ClearITPendingBit) for EXTI_ClearITPendingBit
    gpio.o(i.EXTI0_IRQHandler) refers to gpio.o(.data) for .data
    gpio.o(i.change_EXTIX) refers to stm32f4xx_exti.o(i.EXTI_Init) for EXTI_Init
    gpio.o(i.check_keyboard_flag) refers to gpio.o(.data) for .data
    gpio.o(i.clean_keyboard_flag) refers to gpio.o(.data) for .data
    gpio.o(i.gpio_init) refers to stm32f4xx_rcc.o(i.RCC_AHB1PeriphClockCmd) for RCC_AHB1PeriphClockCmd
    gpio.o(i.gpio_init) refers to stm32f4xx_gpio.o(i.GPIO_Init) for GPIO_Init
    gpio.o(i.gpio_out) refers to stm32f4xx_gpio.o(i.GPIO_SetBits) for GPIO_SetBits
    gpio.o(i.gpio_out) refers to stm32f4xx_gpio.o(i.GPIO_ResetBits) for GPIO_ResetBits
    gpio.o(i.io_interrupt_init) refers to stm32f4xx_syscfg.o(i.SYSCFG_EXTILineConfig) for SYSCFG_EXTILineConfig
    gpio.o(i.io_interrupt_init) refers to stm32f4xx_exti.o(i.EXTI_Init) for EXTI_Init
    gpio.o(i.io_interrupt_init) refers to misc.o(i.NVIC_Init) for NVIC_Init
    head.o(i.Head_state) refers to _printf_percent.o(.ARM.Collect$$_printf_percent$$00000000) for _printf_percent
    head.o(i.Head_state) refers to _printf_d.o(.ARM.Collect$$_printf_percent$$00000009) for _printf_d
    head.o(i.Head_state) refers to _printf_dec.o(.text) for _printf_int_dec
    head.o(i.Head_state) refers to noretval__2printf.o(.text) for __2printf
    head.o(i.Head_state) refers to head.o(.data) for .data
    head.o(i.head_test) refers to _printf_percent.o(.ARM.Collect$$_printf_percent$$00000000) for _printf_percent
    head.o(i.head_test) refers to _printf_x.o(.ARM.Collect$$_printf_percent$$0000000C) for _printf_x
    head.o(i.head_test) refers to _printf_hex_int.o(.text) for _printf_longlong_hex
    head.o(i.head_test) refers to _printf_d.o(.ARM.Collect$$_printf_percent$$00000009) for _printf_d
    head.o(i.head_test) refers to _printf_dec.o(.text) for _printf_int_dec
    head.o(i.head_test) refers to noretval__2printf.o(.text) for __2printf
    head.o(i.head_test) refers to head.o(i.my_head_init) for my_head_init
    head.o(i.head_test) refers to head.o(i.my_malloc) for my_malloc
    head.o(i.head_test) refers to aeabi_memset.o(.text) for __aeabi_memset
    head.o(i.head_test) refers to head.o(i.my_free) for my_free
    head.o(i.head_test) refers to head.o(.data) for .data
    head.o(i.head_test) refers to head.o(.bss) for .bss
    head.o(i.my_free) refers to noretval__2printf.o(.text) for __2printf
    head.o(i.my_free) refers to rt_memclr.o(.text) for __aeabi_memclr
    head.o(i.my_free) refers to head.o(.bss) for .bss
    head.o(i.my_free) refers to head.o(.data) for .data
    head.o(i.my_head_init) refers to head.o(.data) for .data
    head.o(i.my_malloc) refers to _printf_percent.o(.ARM.Collect$$_printf_percent$$00000000) for _printf_percent
    head.o(i.my_malloc) refers to _printf_d.o(.ARM.Collect$$_printf_percent$$00000009) for _printf_d
    head.o(i.my_malloc) refers to _printf_dec.o(.text) for _printf_int_dec
    head.o(i.my_malloc) refers to noretval__2printf.o(.text) for __2printf
    head.o(i.my_malloc) refers to head.o(.data) for .data
    head.o(.data) refers to head.o(.bss) for head_addr
    head.o(.data) refers to head.o(.data) for BYTE_512
    head.o(.data) refers to head.o(.bss) for head_addr
    rtc.o(i.RTC_Alarm_IRQHandler) refers to stm32f4xx_rtc.o(i.RTC_GetFlagStatus) for RTC_GetFlagStatus
    rtc.o(i.RTC_Alarm_IRQHandler) refers to stm32f4xx_rtc.o(i.RTC_ClearFlag) for RTC_ClearFlag
    rtc.o(i.RTC_Alarm_IRQHandler) refers to noretval__2printf.o(.text) for __2printf
    rtc.o(i.RTC_Alarm_IRQHandler) refers to stm32f4xx_exti.o(i.EXTI_ClearITPendingBit) for EXTI_ClearITPendingBit
    rtc.o(i.RTC_Set_AlarmA) refers to stm32f4xx_rtc.o(i.RTC_AlarmCmd) for RTC_AlarmCmd
    rtc.o(i.RTC_Set_AlarmA) refers to stm32f4xx_rtc.o(i.RTC_SetAlarm) for RTC_SetAlarm
    rtc.o(i.RTC_Set_AlarmA) refers to stm32f4xx_rtc.o(i.RTC_ClearITPendingBit) for RTC_ClearITPendingBit
    rtc.o(i.RTC_Set_AlarmA) refers to stm32f4xx_exti.o(i.EXTI_ClearITPendingBit) for EXTI_ClearITPendingBit
    rtc.o(i.RTC_Set_AlarmA) refers to stm32f4xx_rtc.o(i.RTC_ITConfig) for RTC_ITConfig
    rtc.o(i.RTC_Set_AlarmA) refers to stm32f4xx_exti.o(i.EXTI_Init) for EXTI_Init
    rtc.o(i.RTC_Set_AlarmA) refers to misc.o(i.NVIC_Init) for NVIC_Init
    rtc.o(i.RTC_Set_Date) refers to stm32f4xx_rtc.o(i.RTC_SetDate) for RTC_SetDate
    rtc.o(i.RTC_Set_Time) refers to stm32f4xx_rtc.o(i.RTC_SetTime) for RTC_SetTime
    rtc.o(i.RTC_Set_WakeUp) refers to stm32f4xx_rtc.o(i.RTC_WakeUpCmd) for RTC_WakeUpCmd
    rtc.o(i.RTC_Set_WakeUp) refers to stm32f4xx_rtc.o(i.RTC_WakeUpClockConfig) for RTC_WakeUpClockConfig
    rtc.o(i.RTC_Set_WakeUp) refers to stm32f4xx_rtc.o(i.RTC_SetWakeUpCounter) for RTC_SetWakeUpCounter
    rtc.o(i.RTC_Set_WakeUp) refers to stm32f4xx_rtc.o(i.RTC_ClearITPendingBit) for RTC_ClearITPendingBit
    rtc.o(i.RTC_Set_WakeUp) refers to stm32f4xx_exti.o(i.EXTI_ClearITPendingBit) for EXTI_ClearITPendingBit
    rtc.o(i.RTC_Set_WakeUp) refers to stm32f4xx_rtc.o(i.RTC_ITConfig) for RTC_ITConfig
    rtc.o(i.RTC_Set_WakeUp) refers to stm32f4xx_exti.o(i.EXTI_Init) for EXTI_Init
    rtc.o(i.RTC_Set_WakeUp) refers to misc.o(i.NVIC_Init) for NVIC_Init
    rtc.o(i.RTC_TEST) refers to rtc.o(i.RTC_Set_AlarmA) for RTC_Set_AlarmA
    rtc.o(i.RTC_TEST) refers to rtc.o(i.RTC_Set_WakeUp) for RTC_Set_WakeUp
    rtc.o(i.RTC_WKUP_IRQHandler) refers to _printf_percent.o(.ARM.Collect$$_printf_percent$$00000000) for _printf_percent
    rtc.o(i.RTC_WKUP_IRQHandler) refers to _printf_d.o(.ARM.Collect$$_printf_percent$$00000009) for _printf_d
    rtc.o(i.RTC_WKUP_IRQHandler) refers to _printf_dec.o(.text) for _printf_int_dec
    rtc.o(i.RTC_WKUP_IRQHandler) refers to stm32f4xx_rtc.o(i.RTC_GetFlagStatus) for RTC_GetFlagStatus
    rtc.o(i.RTC_WKUP_IRQHandler) refers to stm32f4xx_rtc.o(i.RTC_ClearFlag) for RTC_ClearFlag
    rtc.o(i.RTC_WKUP_IRQHandler) refers to rtc.o(i.get_time) for get_time
    rtc.o(i.RTC_WKUP_IRQHandler) refers to noretval__2printf.o(.text) for __2printf
    rtc.o(i.RTC_WKUP_IRQHandler) refers to stm32f4xx_exti.o(i.EXTI_ClearITPendingBit) for EXTI_ClearITPendingBit
    rtc.o(i.get_time) refers to stm32f4xx_rtc.o(i.RTC_GetTime) for RTC_GetTime
    rtc.o(i.get_time) refers to stm32f4xx_rtc.o(i.RTC_GetDate) for RTC_GetDate
    rtc.o(i.rtc_init) refers to stm32f4xx_rcc.o(i.RCC_APB1PeriphClockCmd) for RCC_APB1PeriphClockCmd
    rtc.o(i.rtc_init) refers to stm32f4xx_pwr.o(i.PWR_BackupAccessCmd) for PWR_BackupAccessCmd
    rtc.o(i.rtc_init) refers to stm32f4xx_rtc.o(i.RTC_ReadBackupRegister) for RTC_ReadBackupRegister
    rtc.o(i.rtc_init) refers to stm32f4xx_rcc.o(i.RCC_LSEConfig) for RCC_LSEConfig
    rtc.o(i.rtc_init) refers to clk_timer.o(i.delay_ms) for delay_ms
    rtc.o(i.rtc_init) refers to stm32f4xx_rcc.o(i.RCC_GetFlagStatus) for RCC_GetFlagStatus
    rtc.o(i.rtc_init) refers to stm32f4xx_rcc.o(i.RCC_RTCCLKConfig) for RCC_RTCCLKConfig
    rtc.o(i.rtc_init) refers to stm32f4xx_rcc.o(i.RCC_RTCCLKCmd) for RCC_RTCCLKCmd
    rtc.o(i.rtc_init) refers to stm32f4xx_rtc.o(i.RTC_Init) for RTC_Init
    rtc.o(i.rtc_init) refers to rtc.o(i.RTC_Set_Time) for RTC_Set_Time
    rtc.o(i.rtc_init) refers to rtc.o(i.RTC_Set_Date) for RTC_Set_Date
    rtc.o(i.rtc_init) refers to stm32f4xx_rtc.o(i.RTC_WriteBackupRegister) for RTC_WriteBackupRegister
    rtc.o(i.set_time) refers to rtc.o(i.RTC_Set_Time) for RTC_Set_Time
    rtc.o(i.set_time) refers to rtc.o(i.RTC_Set_Date) for RTC_Set_Date
    spi.o(i.SPI1_ReadWriteByte) refers to stm32f4xx_spi.o(i.SPI_I2S_GetFlagStatus) for SPI_I2S_GetFlagStatus
    spi.o(i.SPI1_ReadWriteByte) refers to stm32f4xx_spi.o(i.SPI_I2S_SendData) for SPI_I2S_SendData
    spi.o(i.SPI1_ReadWriteByte) refers to stm32f4xx_spi.o(i.SPI_I2S_ReceiveData) for SPI_I2S_ReceiveData
    spi.o(i.flash_spi_init) refers to stm32f4xx_rcc.o(i.RCC_APB2PeriphClockCmd) for RCC_APB2PeriphClockCmd
    spi.o(i.flash_spi_init) refers to gpio.o(i.gpio_init) for gpio_init
    spi.o(i.flash_spi_init) refers to stm32f4xx_gpio.o(i.GPIO_PinAFConfig) for GPIO_PinAFConfig
    spi.o(i.flash_spi_init) refers to stm32f4xx_rcc.o(i.RCC_APB2PeriphResetCmd) for RCC_APB2PeriphResetCmd
    spi.o(i.flash_spi_init) refers to stm32f4xx_spi.o(i.SPI_Init) for SPI_Init
    spi.o(i.flash_spi_init) refers to stm32f4xx_spi.o(i.SPI_Cmd) for SPI_Cmd
    spi.o(i.flash_spi_init) refers to spi.o(i.SPI1_ReadWriteByte) for SPI1_ReadWriteByte
    spi.o(i.flash_spi_init) refers to gpio.o(.bss) for temp_config
    sys.o(i.MYDMA_Config) refers to stm32f4xx_rcc.o(i.RCC_AHB1PeriphClockCmd) for RCC_AHB1PeriphClockCmd
    sys.o(i.MYDMA_Config) refers to stm32f4xx_dma.o(i.DMA_DeInit) for DMA_DeInit
    sys.o(i.MYDMA_Config) refers to stm32f4xx_dma.o(i.DMA_GetCmdStatus) for DMA_GetCmdStatus
    sys.o(i.MYDMA_Config) refers to stm32f4xx_dma.o(i.DMA_Init) for DMA_Init
    sys.o(i.MYDMA_Enable) refers to _printf_percent.o(.ARM.Collect$$_printf_percent$$00000000) for _printf_percent
    sys.o(i.MYDMA_Enable) refers to _printf_d.o(.ARM.Collect$$_printf_percent$$00000009) for _printf_d
    sys.o(i.MYDMA_Enable) refers to _printf_dec.o(.text) for _printf_int_dec
    sys.o(i.MYDMA_Enable) refers to stm32f4xx_usart.o(i.USART_DMACmd) for USART_DMACmd
    sys.o(i.MYDMA_Enable) refers to stm32f4xx_dma.o(i.DMA_Cmd) for DMA_Cmd
    sys.o(i.MYDMA_Enable) refers to stm32f4xx_dma.o(i.DMA_GetCmdStatus) for DMA_GetCmdStatus
    sys.o(i.MYDMA_Enable) refers to stm32f4xx_dma.o(i.DMA_SetCurrDataCounter) for DMA_SetCurrDataCounter
    sys.o(i.MYDMA_Enable) refers to clk_timer.o(i.check_tick) for check_tick
    sys.o(i.MYDMA_Enable) refers to stm32f4xx_dma.o(i.DMA_GetFlagStatus) for DMA_GetFlagStatus
    sys.o(i.MYDMA_Enable) refers to stm32f4xx_dma.o(i.DMA_ClearFlag) for DMA_ClearFlag
    sys.o(i.MYDMA_Enable) refers to noretval__2printf.o(.text) for __2printf
    sys.o(i.RNG_Get_RandomNum) refers to stm32f4xx_rng.o(i.RNG_GetFlagStatus) for RNG_GetFlagStatus
    sys.o(i.RNG_Get_RandomNum) refers to stm32f4xx_rng.o(i.RNG_GetRandomNumber) for RNG_GetRandomNumber
    sys.o(i.RNG_Init) refers to _printf_percent.o(.ARM.Collect$$_printf_percent$$00000000) for _printf_percent
    sys.o(i.RNG_Init) refers to _printf_d.o(.ARM.Collect$$_printf_percent$$00000009) for _printf_d
    sys.o(i.RNG_Init) refers to _printf_s.o(.ARM.Collect$$_printf_percent$$00000014) for _printf_s
    sys.o(i.RNG_Init) refers to _printf_dec.o(.text) for _printf_int_dec
    sys.o(i.RNG_Init) refers to _printf_str.o(.text) for _printf_str
    sys.o(i.RNG_Init) refers to stm32f4xx_rcc.o(i.RCC_AHB2PeriphClockCmd) for RCC_AHB2PeriphClockCmd
    sys.o(i.RNG_Init) refers to stm32f4xx_rng.o(i.RNG_Cmd) for RNG_Cmd
    sys.o(i.RNG_Init) refers to clk_timer.o(i.delay_ms) for delay_ms
    sys.o(i.RNG_Init) refers to stm32f4xx_rng.o(i.RNG_GetFlagStatus) for RNG_GetFlagStatus
    sys.o(i.RNG_Init) refers to noretval__2printf.o(.text) for __2printf
    sys.o(i.Sys_Enter_Standby) refers to stm32f4xx_rcc.o(i.RCC_AHB1PeriphResetCmd) for RCC_AHB1PeriphResetCmd
    sys.o(i.Sys_Enter_Standby) refers to stm32f4xx_rcc.o(i.RCC_APB1PeriphClockCmd) for RCC_APB1PeriphClockCmd
    sys.o(i.Sys_Enter_Standby) refers to stm32f4xx_pwr.o(i.PWR_BackupAccessCmd) for PWR_BackupAccessCmd
    sys.o(i.Sys_Enter_Standby) refers to stm32f4xx_pwr.o(i.PWR_ClearFlag) for PWR_ClearFlag
    sys.o(i.Sys_Enter_Standby) refers to stm32f4xx_pwr.o(i.PWR_WakeUpPinCmd) for PWR_WakeUpPinCmd
    sys.o(i.Sys_Enter_Standby) refers to noretval__2printf.o(.text) for __2printf
    sys.o(i.Sys_Enter_Standby) refers to stm32f4xx_pwr.o(i.PWR_EnterSTANDBYMode) for PWR_EnterSTANDBYMode
    sys.o(i.rng_test) refers to _printf_percent.o(.ARM.Collect$$_printf_percent$$00000000) for _printf_percent
    sys.o(i.rng_test) refers to _printf_u.o(.ARM.Collect$$_printf_percent$$0000000A) for _printf_u
    sys.o(i.rng_test) refers to _printf_dec.o(.text) for _printf_int_dec
    sys.o(i.rng_test) refers to sys.o(i.RNG_Get_RandomNum) for RNG_Get_RandomNum
    sys.o(i.rng_test) refers to rng_driver.o(i.get_random_number) for get_random_number
    sys.o(i.rng_test) refers to noretval__2printf.o(.text) for __2printf
    usart.o(.rev16_text) refers (Special) to use_no_semi_2.o(.text) for __use_no_semihosting
    usart.o(.revsh_text) refers (Special) to use_no_semi_2.o(.text) for __use_no_semihosting
    usart.o(i.Debug_USART_Config) refers (Special) to use_no_semi_2.o(.text) for __use_no_semihosting
    usart.o(i.Debug_USART_Config) refers to stm32f4xx_rcc.o(i.RCC_AHB1PeriphClockCmd) for RCC_AHB1PeriphClockCmd
    usart.o(i.Debug_USART_Config) refers to stm32f4xx_rcc.o(i.RCC_APB2PeriphClockCmd) for RCC_APB2PeriphClockCmd
    usart.o(i.Debug_USART_Config) refers to stm32f4xx_gpio.o(i.GPIO_Init) for GPIO_Init
    usart.o(i.Debug_USART_Config) refers to stm32f4xx_gpio.o(i.GPIO_PinAFConfig) for GPIO_PinAFConfig
    usart.o(i.Debug_USART_Config) refers to stm32f4xx_usart.o(i.USART_Init) for USART_Init
    usart.o(i.Debug_USART_Config) refers to usart.o(i.NVIC_Configuration) for NVIC_Configuration
    usart.o(i.Debug_USART_Config) refers to stm32f4xx_usart.o(i.USART_ITConfig) for USART_ITConfig
    usart.o(i.Debug_USART_Config) refers to stm32f4xx_usart.o(i.USART_Cmd) for USART_Cmd
    usart.o(i.NVIC_Configuration) refers (Special) to use_no_semi_2.o(.text) for __use_no_semihosting
    usart.o(i.NVIC_Configuration) refers to misc.o(i.NVIC_PriorityGroupConfig) for NVIC_PriorityGroupConfig
    usart.o(i.NVIC_Configuration) refers to misc.o(i.NVIC_Init) for NVIC_Init
    usart.o(i.USART1_IRQHandler) refers (Special) to use_no_semi_2.o(.text) for __use_no_semihosting
    usart.o(i.USART1_IRQHandler) refers to stm32f4xx_usart.o(i.USART_GetITStatus) for USART_GetITStatus
    usart.o(i.USART1_IRQHandler) refers to stm32f4xx_usart.o(i.USART_ReceiveData) for USART_ReceiveData
    usart.o(i.USART1_IRQHandler) refers to usart.o(i.Usart_SendString) for Usart_SendString
    usart.o(i.USART1_IRQHandler) refers to usart.o(i.Usart_SendByte) for Usart_SendByte
    usart.o(i.USART1_IRQHandler) refers to usart.o(.bss) for .bss
    usart.o(i.Usart_SendByte) refers (Special) to use_no_semi_2.o(.text) for __use_no_semihosting
    usart.o(i.Usart_SendByte) refers to stm32f4xx_usart.o(i.USART_SendData) for USART_SendData
    usart.o(i.Usart_SendByte) refers to stm32f4xx_usart.o(i.USART_GetFlagStatus) for USART_GetFlagStatus
    usart.o(i.Usart_SendString) refers (Special) to use_no_semi_2.o(.text) for __use_no_semihosting
    usart.o(i.Usart_SendString) refers to usart.o(i.Usart_SendByte) for Usart_SendByte
    usart.o(i.Usart_SendString) refers to stm32f4xx_usart.o(i.USART_GetFlagStatus) for USART_GetFlagStatus
    usart.o(i._sys_exit) refers (Special) to use_no_semi_2.o(.text) for __use_no_semihosting
    usart.o(i._ttywrch) refers (Special) to use_no_semi_2.o(.text) for __use_no_semihosting
    usart.o(i.fputc) refers (Special) to use_no_semi_2.o(.text) for __use_no_semihosting
    usart.o(i.fputc) refers to usart.o(i.Usart_SendByte) for Usart_SendByte
    usart.o(i.get_mon_buf) refers (Special) to use_no_semi_2.o(.text) for __use_no_semihosting
    usart.o(i.get_mon_buf) refers to rt_memcpy_v6.o(.text) for __aeabi_memcpy
    usart.o(i.get_mon_buf) refers to usart.o(i.reset_data) for reset_data
    usart.o(i.get_mon_buf) refers to usart.o(.bss) for .bss
    usart.o(i.get_uart1_buf) refers (Special) to use_no_semi_2.o(.text) for __use_no_semihosting
    usart.o(i.get_uart1_buf) refers to usart.o(.bss) for .bss
    usart.o(i.mon_flag_rw) refers (Special) to use_no_semi_2.o(.text) for __use_no_semihosting
    usart.o(i.mon_flag_rw) refers to usart.o(.bss) for .bss
    usart.o(i.reset_data) refers (Special) to use_no_semi_2.o(.text) for __use_no_semihosting
    usart.o(i.reset_data) refers to rt_memclr.o(.text) for __aeabi_memclr
    usart.o(i.reset_data) refers to usart.o(.bss) for .bss
    usart.o(i.reset_mon_buf) refers (Special) to use_no_semi_2.o(.text) for __use_no_semihosting
    usart.o(i.reset_mon_buf) refers to rt_memclr_w.o(.text) for __aeabi_memclr4
    usart.o(i.reset_mon_buf) refers to usart.o(.bss) for .bss
    usart.o(.bss) refers (Special) to use_no_semi_2.o(.text) for __use_no_semihosting
    usart.o(.data) refers (Special) to use_no_semi_2.o(.text) for __use_no_semihosting
    wwdg.o(i.WWDG_IRQHandler) refers to stm32f4xx_wwdg.o(i.WWDG_ClearFlag) for WWDG_ClearFlag
    wwdg.o(i.WWDG_IRQHandler) refers to stm32f4xx_wwdg.o(i.WWDG_DeInit) for WWDG_DeInit
    wwdg.o(i.WWDG_IRQHandler) refers to noretval__2printf.o(.text) for __2printf
    wwdg.o(i.WWDG_Init) refers to stm32f4xx_rcc.o(i.RCC_APB1PeriphClockCmd) for RCC_APB1PeriphClockCmd
    wwdg.o(i.WWDG_Init) refers to stm32f4xx_wwdg.o(i.WWDG_SetPrescaler) for WWDG_SetPrescaler
    wwdg.o(i.WWDG_Init) refers to stm32f4xx_wwdg.o(i.WWDG_SetWindowValue) for WWDG_SetWindowValue
    wwdg.o(i.WWDG_Init) refers to stm32f4xx_wwdg.o(i.WWDG_Enable) for WWDG_Enable
    wwdg.o(i.WWDG_Init) refers to misc.o(i.NVIC_Init) for NVIC_Init
    wwdg.o(i.WWDG_Init) refers to stm32f4xx_wwdg.o(i.WWDG_ClearFlag) for WWDG_ClearFlag
    wwdg.o(i.WWDG_Init) refers to stm32f4xx_wwdg.o(i.WWDG_EnableIT) for WWDG_EnableIT
    wwdg.o(i.WWDG_Init) refers to wwdg.o(.data) for .data
    wwdg.o(i.WWDG_feed) refers to stm32f4xx_wwdg.o(i.WWDG_SetCounter) for WWDG_SetCounter
    sdio_sdcard.o(i.CmdError) refers to stm32f4xx_sdio.o(i.SDIO_GetFlagStatus) for SDIO_GetFlagStatus
    sdio_sdcard.o(i.CmdError) refers to stm32f4xx_sdio.o(i.SDIO_ClearFlag) for SDIO_ClearFlag
    sdio_sdcard.o(i.CmdResp1Error) refers to stm32f4xx_sdio.o(i.SDIO_GetFlagStatus) for SDIO_GetFlagStatus
    sdio_sdcard.o(i.CmdResp1Error) refers to stm32f4xx_sdio.o(i.SDIO_ClearFlag) for SDIO_ClearFlag
    sdio_sdcard.o(i.CmdResp2Error) refers to stm32f4xx_sdio.o(i.SDIO_ClearFlag) for SDIO_ClearFlag
    sdio_sdcard.o(i.CmdResp2Error) refers to stm32f4xx_sdio.o(i.SDIO_GetFlagStatus) for SDIO_GetFlagStatus
    sdio_sdcard.o(i.CmdResp3Error) refers to stm32f4xx_sdio.o(i.SDIO_GetFlagStatus) for SDIO_GetFlagStatus
    sdio_sdcard.o(i.CmdResp3Error) refers to stm32f4xx_sdio.o(i.SDIO_ClearFlag) for SDIO_ClearFlag
    sdio_sdcard.o(i.CmdResp6Error) refers to stm32f4xx_sdio.o(i.SDIO_GetFlagStatus) for SDIO_GetFlagStatus
    sdio_sdcard.o(i.CmdResp6Error) refers to stm32f4xx_sdio.o(i.SDIO_ClearFlag) for SDIO_ClearFlag
    sdio_sdcard.o(i.CmdResp7Error) refers to stm32f4xx_sdio.o(i.SDIO_ClearFlag) for SDIO_ClearFlag
    sdio_sdcard.o(i.FindSCR) refers to stm32f4xx_sdio.o(i.SDIO_SendCommand) for SDIO_SendCommand
    sdio_sdcard.o(i.FindSCR) refers to sdio_sdcard.o(i.CmdResp1Error) for CmdResp1Error
    sdio_sdcard.o(i.FindSCR) refers to stm32f4xx_sdio.o(i.SDIO_DataConfig) for SDIO_DataConfig
    sdio_sdcard.o(i.FindSCR) refers to stm32f4xx_sdio.o(i.SDIO_GetFlagStatus) for SDIO_GetFlagStatus
    sdio_sdcard.o(i.FindSCR) refers to stm32f4xx_sdio.o(i.SDIO_ClearFlag) for SDIO_ClearFlag
    sdio_sdcard.o(i.FindSCR) refers to sdio_sdcard.o(.bss) for .bss
    sdio_sdcard.o(i.FindSCR) refers to sdio_sdcard.o(.data) for .data
    sdio_sdcard.o(i.IsCardProgramming) refers to stm32f4xx_sdio.o(i.SDIO_SendCommand) for SDIO_SendCommand
    sdio_sdcard.o(i.IsCardProgramming) refers to stm32f4xx_sdio.o(i.SDIO_GetFlagStatus) for SDIO_GetFlagStatus
    sdio_sdcard.o(i.IsCardProgramming) refers to stm32f4xx_sdio.o(i.SDIO_ClearFlag) for SDIO_ClearFlag
    sdio_sdcard.o(i.IsCardProgramming) refers to sdio_sdcard.o(.data) for .data
    sdio_sdcard.o(i.IsCardProgramming) refers to sdio_sdcard.o(.bss) for .bss
    sdio_sdcard.o(i.SDEnWideBus) refers to sdio_sdcard.o(i.FindSCR) for FindSCR
    sdio_sdcard.o(i.SDEnWideBus) refers to stm32f4xx_sdio.o(i.SDIO_SendCommand) for SDIO_SendCommand
    sdio_sdcard.o(i.SDEnWideBus) refers to sdio_sdcard.o(i.CmdResp1Error) for CmdResp1Error
    sdio_sdcard.o(i.SDEnWideBus) refers to sdio_sdcard.o(.data) for .data
    sdio_sdcard.o(i.SDEnWideBus) refers to sdio_sdcard.o(.bss) for .bss
    sdio_sdcard.o(i.SDIO_IRQHandler) refers to sdio_sdcard.o(i.SD_ProcessIRQSrc) for SD_ProcessIRQSrc
    sdio_sdcard.o(i.SD_DMA_Config) refers to stm32f4xx_dma.o(i.DMA_GetCmdStatus) for DMA_GetCmdStatus
    sdio_sdcard.o(i.SD_DMA_Config) refers to stm32f4xx_dma.o(i.DMA_DeInit) for DMA_DeInit
    sdio_sdcard.o(i.SD_DMA_Config) refers to stm32f4xx_dma.o(i.DMA_Init) for DMA_Init
    sdio_sdcard.o(i.SD_DMA_Config) refers to stm32f4xx_dma.o(i.DMA_FlowControllerConfig) for DMA_FlowControllerConfig
    sdio_sdcard.o(i.SD_DMA_Config) refers to stm32f4xx_dma.o(i.DMA_Cmd) for DMA_Cmd
    sdio_sdcard.o(i.SD_EnableWideBusOperation) refers to sdio_sdcard.o(i.SDEnWideBus) for SDEnWideBus
    sdio_sdcard.o(i.SD_EnableWideBusOperation) refers to sdio_sdcard.o(.data) for .data
    sdio_sdcard.o(i.SD_GetCardInfo) refers to sdio_sdcard.o(.data) for .data
    sdio_sdcard.o(i.SD_GetCardInfo) refers to sdio_sdcard.o(.bss) for .bss
    sdio_sdcard.o(i.SD_GetState) refers to sdio_sdcard.o(i.SD_SendStatus) for SD_SendStatus
    sdio_sdcard.o(i.SD_Init) refers to stm32f4xx_rcc.o(i.RCC_AHB1PeriphClockCmd) for RCC_AHB1PeriphClockCmd
    sdio_sdcard.o(i.SD_Init) refers to stm32f4xx_rcc.o(i.RCC_APB2PeriphClockCmd) for RCC_APB2PeriphClockCmd
    sdio_sdcard.o(i.SD_Init) refers to stm32f4xx_rcc.o(i.RCC_APB2PeriphResetCmd) for RCC_APB2PeriphResetCmd
    sdio_sdcard.o(i.SD_Init) refers to stm32f4xx_gpio.o(i.GPIO_Init) for GPIO_Init
    sdio_sdcard.o(i.SD_Init) refers to stm32f4xx_gpio.o(i.GPIO_PinAFConfig) for GPIO_PinAFConfig
    sdio_sdcard.o(i.SD_Init) refers to sdio_sdcard.o(i.SDIO_Register_Deinit) for SDIO_Register_Deinit
    sdio_sdcard.o(i.SD_Init) refers to misc.o(i.NVIC_Init) for NVIC_Init
    sdio_sdcard.o(i.SD_Init) refers to sdio_sdcard.o(i.SD_PowerON) for SD_PowerON
    sdio_sdcard.o(i.SD_Init) refers to sdio_sdcard.o(i.SD_InitializeCards) for SD_InitializeCards
    sdio_sdcard.o(i.SD_Init) refers to sdio_sdcard.o(i.SD_GetCardInfo) for SD_GetCardInfo
    sdio_sdcard.o(i.SD_Init) refers to sdio_sdcard.o(i.SD_SelectDeselect) for SD_SelectDeselect
    sdio_sdcard.o(i.SD_Init) refers to sdio_sdcard.o(i.SD_EnableWideBusOperation) for SD_EnableWideBusOperation
    sdio_sdcard.o(i.SD_Init) refers to sdio_sdcard.o(i.SDIO_Clock_Set) for SDIO_Clock_Set
    sdio_sdcard.o(i.SD_Init) refers to sdio_sdcard.o(i.SD_SetDeviceMode) for SD_SetDeviceMode
    sdio_sdcard.o(i.SD_Init) refers to sdio_sdcard.o(.bss) for .bss
    sdio_sdcard.o(i.SD_Init) refers to sdio_sdcard.o(.data) for .data
    sdio_sdcard.o(i.SD_InitializeCards) refers to stm32f4xx_sdio.o(i.SDIO_GetPowerState) for SDIO_GetPowerState
    sdio_sdcard.o(i.SD_InitializeCards) refers to stm32f4xx_sdio.o(i.SDIO_SendCommand) for SDIO_SendCommand
    sdio_sdcard.o(i.SD_InitializeCards) refers to sdio_sdcard.o(i.CmdResp2Error) for CmdResp2Error
    sdio_sdcard.o(i.SD_InitializeCards) refers to sdio_sdcard.o(i.CmdResp6Error) for CmdResp6Error
    sdio_sdcard.o(i.SD_InitializeCards) refers to sdio_sdcard.o(.data) for .data
    sdio_sdcard.o(i.SD_InitializeCards) refers to sdio_sdcard.o(.bss) for .bss
    sdio_sdcard.o(i.SD_PowerOFF) refers to stm32f4xx_sdio.o(i.SDIO_SetPowerState) for SDIO_SetPowerState
    sdio_sdcard.o(i.SD_PowerON) refers to stm32f4xx_sdio.o(i.SDIO_Init) for SDIO_Init
    sdio_sdcard.o(i.SD_PowerON) refers to stm32f4xx_sdio.o(i.SDIO_SetPowerState) for SDIO_SetPowerState
    sdio_sdcard.o(i.SD_PowerON) refers to stm32f4xx_sdio.o(i.SDIO_SendCommand) for SDIO_SendCommand
    sdio_sdcard.o(i.SD_PowerON) refers to sdio_sdcard.o(i.CmdError) for CmdError
    sdio_sdcard.o(i.SD_PowerON) refers to sdio_sdcard.o(i.CmdResp7Error) for CmdResp7Error
    sdio_sdcard.o(i.SD_PowerON) refers to sdio_sdcard.o(i.CmdResp1Error) for CmdResp1Error
    sdio_sdcard.o(i.SD_PowerON) refers to sdio_sdcard.o(i.CmdResp3Error) for CmdResp3Error
    sdio_sdcard.o(i.SD_PowerON) refers to sdio_sdcard.o(.bss) for .bss
    sdio_sdcard.o(i.SD_PowerON) refers to sdio_sdcard.o(.data) for .data
    sdio_sdcard.o(i.SD_ProcessIRQSrc) refers to stm32f4xx_sdio.o(i.SDIO_GetFlagStatus) for SDIO_GetFlagStatus
    sdio_sdcard.o(i.SD_ProcessIRQSrc) refers to stm32f4xx_sdio.o(i.SDIO_SendCommand) for SDIO_SendCommand
    sdio_sdcard.o(i.SD_ProcessIRQSrc) refers to sdio_sdcard.o(i.CmdResp1Error) for CmdResp1Error
    sdio_sdcard.o(i.SD_ProcessIRQSrc) refers to stm32f4xx_sdio.o(i.SDIO_ClearFlag) for SDIO_ClearFlag
    sdio_sdcard.o(i.SD_ProcessIRQSrc) refers to sdio_sdcard.o(.data) for .data
    sdio_sdcard.o(i.SD_ProcessIRQSrc) refers to sdio_sdcard.o(.bss) for .bss
    sdio_sdcard.o(i.SD_ReadBlock) refers to stm32f4xx_sdio.o(i.SDIO_DataConfig) for SDIO_DataConfig
    sdio_sdcard.o(i.SD_ReadBlock) refers to sdio_sdcard.o(i.convert_from_bytes_to_power_of_two) for convert_from_bytes_to_power_of_two
    sdio_sdcard.o(i.SD_ReadBlock) refers to stm32f4xx_sdio.o(i.SDIO_SendCommand) for SDIO_SendCommand
    sdio_sdcard.o(i.SD_ReadBlock) refers to sdio_sdcard.o(i.CmdResp1Error) for CmdResp1Error
    sdio_sdcard.o(i.SD_ReadBlock) refers to sys.o(.emb_text) for INTX_DISABLE
    sdio_sdcard.o(i.SD_ReadBlock) refers to stm32f4xx_sdio.o(i.SDIO_GetFlagStatus) for SDIO_GetFlagStatus
    sdio_sdcard.o(i.SD_ReadBlock) refers to stm32f4xx_sdio.o(i.SDIO_ClearFlag) for SDIO_ClearFlag
    sdio_sdcard.o(i.SD_ReadBlock) refers to sdio_sdcard.o(i.SD_DMA_Config) for SD_DMA_Config
    sdio_sdcard.o(i.SD_ReadBlock) refers to sdio_sdcard.o(.data) for .data
    sdio_sdcard.o(i.SD_ReadBlock) refers to sdio_sdcard.o(.bss) for .bss
    sdio_sdcard.o(i.SD_ReadDisk) refers to sdio_sdcard.o(i.SD_ReadBlock) for SD_ReadBlock
    sdio_sdcard.o(i.SD_ReadDisk) refers to rt_memcpy_v6.o(.text) for __aeabi_memcpy
    sdio_sdcard.o(i.SD_ReadDisk) refers to sdio_sdcard.o(i.SD_ReadMultiBlocks) for SD_ReadMultiBlocks
    sdio_sdcard.o(i.SD_ReadDisk) refers to sdio_sdcard.o(.bss) for .bss
    sdio_sdcard.o(i.SD_ReadMultiBlocks) refers to stm32f4xx_sdio.o(i.SDIO_DataConfig) for SDIO_DataConfig
    sdio_sdcard.o(i.SD_ReadMultiBlocks) refers to sdio_sdcard.o(i.convert_from_bytes_to_power_of_two) for convert_from_bytes_to_power_of_two
    sdio_sdcard.o(i.SD_ReadMultiBlocks) refers to stm32f4xx_sdio.o(i.SDIO_SendCommand) for SDIO_SendCommand
    sdio_sdcard.o(i.SD_ReadMultiBlocks) refers to sdio_sdcard.o(i.CmdResp1Error) for CmdResp1Error
    sdio_sdcard.o(i.SD_ReadMultiBlocks) refers to sys.o(.emb_text) for INTX_DISABLE
    sdio_sdcard.o(i.SD_ReadMultiBlocks) refers to stm32f4xx_sdio.o(i.SDIO_GetFlagStatus) for SDIO_GetFlagStatus
    sdio_sdcard.o(i.SD_ReadMultiBlocks) refers to stm32f4xx_sdio.o(i.SDIO_ClearFlag) for SDIO_ClearFlag
    sdio_sdcard.o(i.SD_ReadMultiBlocks) refers to sdio_sdcard.o(i.SD_DMA_Config) for SD_DMA_Config
    sdio_sdcard.o(i.SD_ReadMultiBlocks) refers to sdio_sdcard.o(.data) for .data
    sdio_sdcard.o(i.SD_ReadMultiBlocks) refers to sdio_sdcard.o(.bss) for .bss
    sdio_sdcard.o(i.SD_SelectDeselect) refers to stm32f4xx_sdio.o(i.SDIO_SendCommand) for SDIO_SendCommand
    sdio_sdcard.o(i.SD_SelectDeselect) refers to sdio_sdcard.o(i.CmdResp1Error) for CmdResp1Error
    sdio_sdcard.o(i.SD_SelectDeselect) refers to sdio_sdcard.o(.bss) for .bss
    sdio_sdcard.o(i.SD_SendStatus) refers to stm32f4xx_sdio.o(i.SDIO_SendCommand) for SDIO_SendCommand
    sdio_sdcard.o(i.SD_SendStatus) refers to sdio_sdcard.o(i.CmdResp1Error) for CmdResp1Error
    sdio_sdcard.o(i.SD_SendStatus) refers to sdio_sdcard.o(.data) for .data
    sdio_sdcard.o(i.SD_SendStatus) refers to sdio_sdcard.o(.bss) for .bss
    sdio_sdcard.o(i.SD_SetDeviceMode) refers to sdio_sdcard.o(.data) for .data
    sdio_sdcard.o(i.SD_WriteBlock) refers to stm32f4xx_sdio.o(i.SDIO_DataConfig) for SDIO_DataConfig
    sdio_sdcard.o(i.SD_WriteBlock) refers to sdio_sdcard.o(i.convert_from_bytes_to_power_of_two) for convert_from_bytes_to_power_of_two
    sdio_sdcard.o(i.SD_WriteBlock) refers to stm32f4xx_sdio.o(i.SDIO_SendCommand) for SDIO_SendCommand
    sdio_sdcard.o(i.SD_WriteBlock) refers to sdio_sdcard.o(i.CmdResp1Error) for CmdResp1Error
    sdio_sdcard.o(i.SD_WriteBlock) refers to sys.o(.emb_text) for INTX_DISABLE
    sdio_sdcard.o(i.SD_WriteBlock) refers to stm32f4xx_sdio.o(i.SDIO_GetFlagStatus) for SDIO_GetFlagStatus
    sdio_sdcard.o(i.SD_WriteBlock) refers to stm32f4xx_sdio.o(i.SDIO_ClearFlag) for SDIO_ClearFlag
    sdio_sdcard.o(i.SD_WriteBlock) refers to sdio_sdcard.o(i.SD_DMA_Config) for SD_DMA_Config
    sdio_sdcard.o(i.SD_WriteBlock) refers to sdio_sdcard.o(i.SD_Init) for SD_Init
    sdio_sdcard.o(i.SD_WriteBlock) refers to sdio_sdcard.o(i.IsCardProgramming) for IsCardProgramming
    sdio_sdcard.o(i.SD_WriteBlock) refers to sdio_sdcard.o(.bss) for .bss
    sdio_sdcard.o(i.SD_WriteBlock) refers to sdio_sdcard.o(.data) for .data
    sdio_sdcard.o(i.SD_WriteDisk) refers to rt_memcpy_v6.o(.text) for __aeabi_memcpy
    sdio_sdcard.o(i.SD_WriteDisk) refers to sdio_sdcard.o(i.SD_WriteBlock) for SD_WriteBlock
    sdio_sdcard.o(i.SD_WriteDisk) refers to sdio_sdcard.o(i.SD_WriteMultiBlocks) for SD_WriteMultiBlocks
    sdio_sdcard.o(i.SD_WriteDisk) refers to sdio_sdcard.o(.bss) for .bss
    sdio_sdcard.o(i.SD_WriteMultiBlocks) refers to stm32f4xx_sdio.o(i.SDIO_DataConfig) for SDIO_DataConfig
    sdio_sdcard.o(i.SD_WriteMultiBlocks) refers to sdio_sdcard.o(i.convert_from_bytes_to_power_of_two) for convert_from_bytes_to_power_of_two
    sdio_sdcard.o(i.SD_WriteMultiBlocks) refers to stm32f4xx_sdio.o(i.SDIO_SendCommand) for SDIO_SendCommand
    sdio_sdcard.o(i.SD_WriteMultiBlocks) refers to sdio_sdcard.o(i.CmdResp1Error) for CmdResp1Error
    sdio_sdcard.o(i.SD_WriteMultiBlocks) refers to sys.o(.emb_text) for INTX_DISABLE
    sdio_sdcard.o(i.SD_WriteMultiBlocks) refers to stm32f4xx_sdio.o(i.SDIO_GetFlagStatus) for SDIO_GetFlagStatus
    sdio_sdcard.o(i.SD_WriteMultiBlocks) refers to stm32f4xx_sdio.o(i.SDIO_ClearFlag) for SDIO_ClearFlag
    sdio_sdcard.o(i.SD_WriteMultiBlocks) refers to sdio_sdcard.o(i.SD_DMA_Config) for SD_DMA_Config
    sdio_sdcard.o(i.SD_WriteMultiBlocks) refers to sdio_sdcard.o(i.SD_Init) for SD_Init
    sdio_sdcard.o(i.SD_WriteMultiBlocks) refers to sdio_sdcard.o(i.IsCardProgramming) for IsCardProgramming
    sdio_sdcard.o(i.SD_WriteMultiBlocks) refers to sdio_sdcard.o(.bss) for .bss
    sdio_sdcard.o(i.SD_WriteMultiBlocks) refers to sdio_sdcard.o(.data) for .data
    sdio_sdcard.o(i.sd_cart_test) refers to _printf_percent.o(.ARM.Collect$$_printf_percent$$00000000) for _printf_percent
    sdio_sdcard.o(i.sd_cart_test) refers to _printf_d.o(.ARM.Collect$$_printf_percent$$00000009) for _printf_d
    sdio_sdcard.o(i.sd_cart_test) refers to _printf_dec.o(.text) for _printf_int_dec
    sdio_sdcard.o(i.sd_cart_test) refers to lcd.o(i.LCD_ShowString) for LCD_ShowString
    sdio_sdcard.o(i.sd_cart_test) refers to clk_timer.o(i.delay_ms) for delay_ms
    sdio_sdcard.o(i.sd_cart_test) refers to sdio_sdcard.o(i.SD_Init) for SD_Init
    sdio_sdcard.o(i.sd_cart_test) refers to noretval__2printf.o(.text) for __2printf
    sdio_sdcard.o(i.sd_cart_test) refers to sdio_sdcard.o(.bss) for .bss
    cti2c.o(i.CT_Delay) refers to clk_timer.o(i.delay_us) for delay_us
    cti2c.o(i.CT_IIC_Ack) refers to gpio.o(i.gpio_out) for gpio_out
    cti2c.o(i.CT_IIC_Ack) refers to cti2c.o(i.CT_Delay) for CT_Delay
    cti2c.o(i.CT_IIC_Init) refers to gpio.o(i.gpio_init) for gpio_init
    cti2c.o(i.CT_IIC_Init) refers to gpio.o(.bss) for temp_config
    cti2c.o(i.CT_IIC_NAck) refers to gpio.o(i.gpio_out) for gpio_out
    cti2c.o(i.CT_IIC_NAck) refers to cti2c.o(i.CT_Delay) for CT_Delay
    cti2c.o(i.CT_IIC_Read_Byte) refers to clk_timer.o(i.delay_us) for delay_us
    cti2c.o(i.CT_IIC_Read_Byte) refers to gpio.o(i.gpio_out) for gpio_out
    cti2c.o(i.CT_IIC_Read_Byte) refers to cti2c.o(i.CT_Delay) for CT_Delay
    cti2c.o(i.CT_IIC_Read_Byte) refers to stm32f4xx_gpio.o(i.GPIO_ReadInputDataBit) for GPIO_ReadInputDataBit
    cti2c.o(i.CT_IIC_Read_Byte) refers to cti2c.o(i.CT_IIC_Ack) for CT_IIC_Ack
    cti2c.o(i.CT_IIC_Read_Byte) refers to cti2c.o(i.CT_IIC_NAck) for CT_IIC_NAck
    cti2c.o(i.CT_IIC_Send_Byte) refers to gpio.o(i.gpio_out) for gpio_out
    cti2c.o(i.CT_IIC_Send_Byte) refers to cti2c.o(i.CT_Delay) for CT_Delay
    cti2c.o(i.CT_IIC_Start) refers to gpio.o(i.gpio_out) for gpio_out
    cti2c.o(i.CT_IIC_Start) refers to clk_timer.o(i.delay_us) for delay_us
    cti2c.o(i.CT_IIC_Start) refers to cti2c.o(i.CT_Delay) for CT_Delay
    cti2c.o(i.CT_IIC_Stop) refers to gpio.o(i.gpio_out) for gpio_out
    cti2c.o(i.CT_IIC_Stop) refers to clk_timer.o(i.delay_us) for delay_us
    cti2c.o(i.CT_IIC_Stop) refers to cti2c.o(i.CT_Delay) for CT_Delay
    cti2c.o(i.CT_IIC_Wait_Ack) refers to gpio.o(i.gpio_out) for gpio_out
    cti2c.o(i.CT_IIC_Wait_Ack) refers to cti2c.o(i.CT_Delay) for CT_Delay
    cti2c.o(i.CT_IIC_Wait_Ack) refers to cti2c.o(i.CT_IIC_Stop) for CT_IIC_Stop
    cti2c.o(i.CT_IIC_Wait_Ack) refers to stm32f4xx_gpio.o(i.GPIO_ReadInputDataBit) for GPIO_ReadInputDataBit
    keyboard_driver.o(i.key0_task) refers to stm32f4xx_gpio.o(i.GPIO_ReadInputDataBit) for GPIO_ReadInputDataBit
    keyboard_driver.o(i.key0_task) refers to noretval__2printf.o(.text) for __2printf
    keyboard_driver.o(i.key0_task) refers to keyboard_driver.o(.data) for .data
    keyboard_driver.o(i.key1_task) refers to stm32f4xx_gpio.o(i.GPIO_ReadInputDataBit) for GPIO_ReadInputDataBit
    keyboard_driver.o(i.key1_task) refers to noretval__2printf.o(.text) for __2printf
    keyboard_driver.o(i.key1_task) refers to keyboard_driver.o(.data) for .data
    keyboard_driver.o(i.key_init) refers to gpio.o(i.gpio_init) for gpio_init
    keyboard_driver.o(i.key_init) refers to gpio.o(i.io_interrupt_init) for io_interrupt_init
    keyboard_driver.o(i.key_init) refers to gpio.o(.bss) for temp_config
    keyboard_driver.o(i.key_task_init) refers to clk_timer.o(i.insert_task) for insert_task
    keyboard_driver.o(i.key_task_init) refers to keyboard_driver.o(.data) for .data
    keyboard_driver.o(.data) refers to keyboard_driver.o(i.key1_task) for key1_task
    keyboard_driver.o(.data) refers to keyboard_driver.o(i.key0_task) for key0_task
    led_driver.o(i.LED_Init) refers to gpio.o(i.gpio_init) for gpio_init
    led_driver.o(i.LED_Init) refers to gpio.o(.bss) for temp_config
    led_driver.o(i.LED_switch) refers to gpio.o(i.gpio_out) for gpio_out
    led_driver.o(i.LED_test) refers to led_driver.o(i.LED_switch) for LED_switch
    led_driver.o(i.LED_test) refers to clk_timer.o(i.delay_ms) for delay_ms
    led_driver.o(i.led_service) refers to led_driver.o(i.LED_switch) for LED_switch
    mon.o(i.Mon_hello) refers to _printf_percent.o(.ARM.Collect$$_printf_percent$$00000000) for _printf_percent
    mon.o(i.Mon_hello) refers to _printf_d.o(.ARM.Collect$$_printf_percent$$00000009) for _printf_d
    mon.o(i.Mon_hello) refers to _printf_s.o(.ARM.Collect$$_printf_percent$$00000014) for _printf_s
    mon.o(i.Mon_hello) refers to _printf_dec.o(.text) for _printf_int_dec
    mon.o(i.Mon_hello) refers to _printf_str.o(.text) for _printf_str
    mon.o(i.Mon_hello) refers to noretval__2printf.o(.text) for __2printf
    mon.o(i.Mon_polling) refers to usart.o(i.mon_flag_rw) for mon_flag_rw
    mon.o(i.Mon_polling) refers to usart.o(i.get_mon_buf) for get_mon_buf
    mon.o(i.Mon_polling) refers to mon.o(i.command_handler) for command_handler
    mon.o(i.Mon_polling) refers to usart.o(i.reset_mon_buf) for reset_mon_buf
    mon.o(i.command_handler) refers to mon.o(i.search_len) for search_len
    mon.o(i.command_handler) refers to mon.o(i.search_command) for search_command
    mon.o(i.command_handler) refers to mon.o(i.search_arg) for search_arg
    mon.o(i.command_handler) refers to strlen.o(.text) for strlen
    mon.o(i.command_handler) refers to noretval__2printf.o(.text) for __2printf
    mon.o(i.search_arg) refers to mon.o(i.search_len) for search_len
    mon.o(i.search_arg) refers to noretval__2printf.o(.text) for __2printf
    mon.o(i.search_command) refers to strncmp.o(.text) for strncmp
    mon.o(i.search_command) refers to mon.o(.data) for .data
    mon.o(i.send_touch) refers to _printf_percent.o(.ARM.Collect$$_printf_percent$$00000000) for _printf_percent
    mon.o(i.send_touch) refers to _printf_d.o(.ARM.Collect$$_printf_percent$$00000009) for _printf_d
    mon.o(i.send_touch) refers to _printf_s.o(.ARM.Collect$$_printf_percent$$00000014) for _printf_s
    mon.o(i.send_touch) refers to _printf_dec.o(.text) for _printf_int_dec
    mon.o(i.send_touch) refers to _printf_str.o(.text) for _printf_str
    mon.o(i.send_touch) refers to noretval__2printf.o(.text) for __2printf
    mon.o(i.send_touch) refers to mon.o(i.to_int) for to_int
    mon.o(i.send_touch) refers to view.o(i.Send_message) for Send_message
    mon.o(i.set_mon_flag) refers to mon.o(.data) for .data
    mon.o(i.timer_test) refers to _printf_percent.o(.ARM.Collect$$_printf_percent$$00000000) for _printf_percent
    mon.o(i.timer_test) refers to _printf_d.o(.ARM.Collect$$_printf_percent$$00000009) for _printf_d
    mon.o(i.timer_test) refers to _printf_dec.o(.text) for _printf_int_dec
    mon.o(i.timer_test) refers to _printf_s.o(.ARM.Collect$$_printf_percent$$00000014) for _printf_s
    mon.o(i.timer_test) refers to _printf_str.o(.text) for _printf_str
    mon.o(i.timer_test) refers to noretval__2printf.o(.text) for __2printf
    mon.o(i.timer_test) refers to clk_timer.o(i.check_tick) for check_tick
    mon.o(i.timer_test) refers to mon.o(i.to_int) for to_int
    mon.o(i.timer_test) refers to clk_timer.o(i.Create_task) for Create_task
    mon.o(i.timer_test) refers to mon.o(i.timer_test_func) for timer_test_func
    mon.o(i.timer_test_func) refers to _printf_percent.o(.ARM.Collect$$_printf_percent$$00000000) for _printf_percent
    mon.o(i.timer_test_func) refers to _printf_d.o(.ARM.Collect$$_printf_percent$$00000009) for _printf_d
    mon.o(i.timer_test_func) refers to _printf_dec.o(.text) for _printf_int_dec
    mon.o(i.timer_test_func) refers to clk_timer.o(i.check_tick) for check_tick
    mon.o(i.timer_test_func) refers to noretval__2printf.o(.text) for __2printf
    mon.o(i.to_int) refers to _printf_percent.o(.ARM.Collect$$_printf_percent$$00000000) for _printf_percent
    mon.o(i.to_int) refers to _printf_d.o(.ARM.Collect$$_printf_percent$$00000009) for _printf_d
    mon.o(i.to_int) refers to _printf_s.o(.ARM.Collect$$_printf_percent$$00000014) for _printf_s
    mon.o(i.to_int) refers to _printf_dec.o(.text) for _printf_int_dec
    mon.o(i.to_int) refers to _printf_str.o(.text) for _printf_str
    mon.o(i.to_int) refers to noretval__2printf.o(.text) for __2printf
    mon.o(.data) refers to mon.o(i.Mon_hello) for Mon_hello
    mon.o(.data) refers to mon.o(.conststring) for .conststring
    mon.o(.data) refers to mon.o(i.timer_test) for timer_test
    mon.o(.data) refers to head.o(i.Head_state) for Head_state
    mon.o(.data) refers to mon.o(i.send_touch) for send_touch
    rng_driver.o(i.RNG_Get_RandomRange) refers to rng_driver.o(i.get_random_number) for get_random_number
    rng_driver.o(i.get_random_number) refers to sys.o(i.RNG_Get_RandomNum) for RNG_Get_RandomNum
    sys_driver.o(i.enter_standby) refers to sys.o(i.Sys_Enter_Standby) for Sys_Enter_Standby
    sys_driver.o(i.enter_standby) refers to keyboard_driver.o(i.key_init) for key_init
    w25q16.o(i.W25QXX_Erase_Chip) refers to w25q16.o(i.W25QXX_Write_Enable) for W25QXX_Write_Enable
    w25q16.o(i.W25QXX_Erase_Chip) refers to w25q16.o(i.W25QXX_Wait_Busy) for W25QXX_Wait_Busy
    w25q16.o(i.W25QXX_Erase_Chip) refers to gpio.o(i.gpio_out) for gpio_out
    w25q16.o(i.W25QXX_Erase_Chip) refers to spi.o(i.SPI1_ReadWriteByte) for SPI1_ReadWriteByte
    w25q16.o(i.W25QXX_Erase_Sector) refers to w25q16.o(i.W25QXX_Write_Enable) for W25QXX_Write_Enable
    w25q16.o(i.W25QXX_Erase_Sector) refers to w25q16.o(i.W25QXX_Wait_Busy) for W25QXX_Wait_Busy
    w25q16.o(i.W25QXX_Erase_Sector) refers to gpio.o(i.gpio_out) for gpio_out
    w25q16.o(i.W25QXX_Erase_Sector) refers to spi.o(i.SPI1_ReadWriteByte) for SPI1_ReadWriteByte
    w25q16.o(i.W25QXX_Init) refers to _printf_percent.o(.ARM.Collect$$_printf_percent$$00000000) for _printf_percent
    w25q16.o(i.W25QXX_Init) refers to _printf_x.o(.ARM.Collect$$_printf_percent$$0000000C) for _printf_x
    w25q16.o(i.W25QXX_Init) refers to _printf_hex_int.o(.text) for _printf_longlong_hex
    w25q16.o(i.W25QXX_Init) refers to gpio.o(i.gpio_init) for gpio_init
    w25q16.o(i.W25QXX_Init) refers to gpio.o(i.gpio_out) for gpio_out
    w25q16.o(i.W25QXX_Init) refers to spi.o(i.flash_spi_init) for flash_spi_init
    w25q16.o(i.W25QXX_Init) refers to w25q16.o(i.W25QXX_ReadID) for W25QXX_ReadID
    w25q16.o(i.W25QXX_Init) refers to noretval__2printf.o(.text) for __2printf
    w25q16.o(i.W25QXX_Init) refers to gpio.o(.bss) for temp_config
    w25q16.o(i.W25QXX_Init) refers to w25q16.o(.data) for .data
    w25q16.o(i.W25QXX_PowerDown) refers to gpio.o(i.gpio_out) for gpio_out
    w25q16.o(i.W25QXX_PowerDown) refers to spi.o(i.SPI1_ReadWriteByte) for SPI1_ReadWriteByte
    w25q16.o(i.W25QXX_PowerDown) refers to clk_timer.o(i.delay_us) for delay_us
    w25q16.o(i.W25QXX_Read) refers to gpio.o(i.gpio_out) for gpio_out
    w25q16.o(i.W25QXX_Read) refers to spi.o(i.SPI1_ReadWriteByte) for SPI1_ReadWriteByte
    w25q16.o(i.W25QXX_ReadID) refers to gpio.o(i.gpio_out) for gpio_out
    w25q16.o(i.W25QXX_ReadID) refers to spi.o(i.SPI1_ReadWriteByte) for SPI1_ReadWriteByte
    w25q16.o(i.W25QXX_ReadSR) refers to gpio.o(i.gpio_out) for gpio_out
    w25q16.o(i.W25QXX_ReadSR) refers to spi.o(i.SPI1_ReadWriteByte) for SPI1_ReadWriteByte
    w25q16.o(i.W25QXX_WAKEUP) refers to gpio.o(i.gpio_out) for gpio_out
    w25q16.o(i.W25QXX_WAKEUP) refers to spi.o(i.SPI1_ReadWriteByte) for SPI1_ReadWriteByte
    w25q16.o(i.W25QXX_WAKEUP) refers to clk_timer.o(i.delay_us) for delay_us
    w25q16.o(i.W25QXX_Wait_Busy) refers to w25q16.o(i.W25QXX_ReadSR) for W25QXX_ReadSR
    w25q16.o(i.W25QXX_Write) refers to w25q16.o(i.W25QXX_Erase_Sector) for W25QXX_Erase_Sector
    w25q16.o(i.W25QXX_Write) refers to w25q16.o(i.W25QXX_Write_NoCheck) for W25QXX_Write_NoCheck
    w25q16.o(i.W25QXX_Write) refers to w25q16.o(i.W25QXX_Read) for W25QXX_Read
    w25q16.o(i.W25QXX_Write) refers to w25q16.o(.bss) for .bss
    w25q16.o(i.W25QXX_Write_Disable) refers to gpio.o(i.gpio_out) for gpio_out
    w25q16.o(i.W25QXX_Write_Disable) refers to spi.o(i.SPI1_ReadWriteByte) for SPI1_ReadWriteByte
    w25q16.o(i.W25QXX_Write_Enable) refers to gpio.o(i.gpio_out) for gpio_out
    w25q16.o(i.W25QXX_Write_Enable) refers to spi.o(i.SPI1_ReadWriteByte) for SPI1_ReadWriteByte
    w25q16.o(i.W25QXX_Write_NoCheck) refers to w25q16.o(i.W25QXX_Write_Page) for W25QXX_Write_Page
    w25q16.o(i.W25QXX_Write_Page) refers to w25q16.o(i.W25QXX_Write_Enable) for W25QXX_Write_Enable
    w25q16.o(i.W25QXX_Write_Page) refers to gpio.o(i.gpio_out) for gpio_out
    w25q16.o(i.W25QXX_Write_Page) refers to spi.o(i.SPI1_ReadWriteByte) for SPI1_ReadWriteByte
    w25q16.o(i.W25QXX_Write_Page) refers to w25q16.o(i.W25QXX_Wait_Busy) for W25QXX_Wait_Busy
    w25q16.o(i.W25QXX_Write_SR) refers to gpio.o(i.gpio_out) for gpio_out
    w25q16.o(i.W25QXX_Write_SR) refers to spi.o(i.SPI1_ReadWriteByte) for SPI1_ReadWriteByte
    cc936.o(i.ff_convert) refers to cc936.o(.constdata) for .constdata
    cc936.o(i.ff_wtoupper) refers to cc936.o(.constdata) for .constdata
    ff.o(i.check_fs) refers to ff.o(i.move_window) for move_window
    ff.o(i.cmp_lfn) refers to cc936.o(i.ff_wtoupper) for ff_wtoupper
    ff.o(i.cmp_lfn) refers to ff.o(.constdata) for .constdata
    ff.o(i.create_chain) refers to ff.o(i.get_fat) for get_fat
    ff.o(i.create_chain) refers to ff.o(i.put_fat) for put_fat
    ff.o(i.create_name) refers to cc936.o(i.ff_convert) for ff_convert
    ff.o(i.create_name) refers to ff.o(i.chk_chr) for chk_chr
    ff.o(i.create_name) refers to ff.o(i.mem_set) for mem_set
    ff.o(i.create_name) refers to cc936.o(i.ff_wtoupper) for ff_wtoupper
    ff.o(i.dir_alloc) refers to ff.o(i.dir_sdi) for dir_sdi
    ff.o(i.dir_alloc) refers to ff.o(i.move_window) for move_window
    ff.o(i.dir_alloc) refers to ff.o(i.dir_next) for dir_next
    ff.o(i.dir_find) refers to ff.o(i.dir_sdi) for dir_sdi
    ff.o(i.dir_find) refers to ff.o(i.move_window) for move_window
    ff.o(i.dir_find) refers to ff.o(i.cmp_lfn) for cmp_lfn
    ff.o(i.dir_find) refers to ff.o(i.sum_sfn) for sum_sfn
    ff.o(i.dir_find) refers to ff.o(i.mem_cmp) for mem_cmp
    ff.o(i.dir_find) refers to ff.o(i.dir_next) for dir_next
    ff.o(i.dir_next) refers to ff.o(i.get_fat) for get_fat
    ff.o(i.dir_next) refers to ff.o(i.create_chain) for create_chain
    ff.o(i.dir_next) refers to ff.o(i.sync_window) for sync_window
    ff.o(i.dir_next) refers to ff.o(i.mem_set) for mem_set
    ff.o(i.dir_next) refers to ff.o(i.clust2sect) for clust2sect
    ff.o(i.dir_read) refers to ff.o(i.move_window) for move_window
    ff.o(i.dir_read) refers to ff.o(i.pick_lfn) for pick_lfn
    ff.o(i.dir_read) refers to ff.o(i.dir_next) for dir_next
    ff.o(i.dir_read) refers to ff.o(i.sum_sfn) for sum_sfn
    ff.o(i.dir_register) refers to ff.o(i.mem_cpy) for mem_cpy
    ff.o(i.dir_register) refers to ff.o(i.gen_numname) for gen_numname
    ff.o(i.dir_register) refers to ff.o(i.dir_find) for dir_find
    ff.o(i.dir_register) refers to ff.o(i.dir_alloc) for dir_alloc
    ff.o(i.dir_register) refers to ff.o(i.dir_sdi) for dir_sdi
    ff.o(i.dir_register) refers to ff.o(i.sum_sfn) for sum_sfn
    ff.o(i.dir_register) refers to ff.o(i.move_window) for move_window
    ff.o(i.dir_register) refers to ff.o(i.fit_lfn) for fit_lfn
    ff.o(i.dir_register) refers to ff.o(i.dir_next) for dir_next
    ff.o(i.dir_register) refers to ff.o(i.mem_set) for mem_set
    ff.o(i.dir_remove) refers to ff.o(i.dir_sdi) for dir_sdi
    ff.o(i.dir_remove) refers to ff.o(i.move_window) for move_window
    ff.o(i.dir_remove) refers to ff.o(i.mem_set) for mem_set
    ff.o(i.dir_remove) refers to ff.o(i.dir_next) for dir_next
    ff.o(i.dir_sdi) refers to ff.o(i.get_fat) for get_fat
    ff.o(i.dir_sdi) refers to ff.o(i.clust2sect) for clust2sect
    ff.o(i.f_chmod) refers to ff.o(i.find_volume) for find_volume
    ff.o(i.f_chmod) refers to diskio.o(i.ff_memalloc) for ff_memalloc
    ff.o(i.f_chmod) refers to ff.o(i.follow_path) for follow_path
    ff.o(i.f_chmod) refers to diskio.o(i.ff_memfree) for ff_memfree
    ff.o(i.f_chmod) refers to ff.o(i.sync_fs) for sync_fs
    ff.o(i.f_close) refers to ff.o(i.f_sync) for f_sync
    ff.o(i.f_close) refers to ff.o(i.validate) for validate
    ff.o(i.f_closedir) refers to ff.o(i.validate) for validate
    ff.o(i.f_getfree) refers to ff.o(i.find_volume) for find_volume
    ff.o(i.f_getfree) refers to ff.o(i.get_fat) for get_fat
    ff.o(i.f_getfree) refers to ff.o(i.move_window) for move_window
    ff.o(i.f_getlabel) refers to ff.o(i.find_volume) for find_volume
    ff.o(i.f_getlabel) refers to ff.o(i.dir_sdi) for dir_sdi
    ff.o(i.f_getlabel) refers to ff.o(i.dir_read) for dir_read
    ff.o(i.f_getlabel) refers to ff.o(i.mem_cpy) for mem_cpy
    ff.o(i.f_getlabel) refers to ff.o(i.move_window) for move_window
    ff.o(i.f_gets) refers to ff.o(i.f_read) for f_read
    ff.o(i.f_lseek) refers to ff.o(i.validate) for validate
    ff.o(i.f_lseek) refers to ff.o(i.clmt_clust) for clmt_clust
    ff.o(i.f_lseek) refers to ff.o(i.clust2sect) for clust2sect
    ff.o(i.f_lseek) refers to diskio.o(i.disk_write) for disk_write
    ff.o(i.f_lseek) refers to ff.o(i.get_fat) for get_fat
    ff.o(i.f_lseek) refers to diskio.o(i.disk_read) for disk_read
    ff.o(i.f_lseek) refers to ff.o(i.create_chain) for create_chain
    ff.o(i.f_mkdir) refers to diskio.o(i.get_fattime) for get_fattime
    ff.o(i.f_mkdir) refers to ff.o(i.find_volume) for find_volume
    ff.o(i.f_mkdir) refers to diskio.o(i.ff_memalloc) for ff_memalloc
    ff.o(i.f_mkdir) refers to ff.o(i.follow_path) for follow_path
    ff.o(i.f_mkdir) refers to ff.o(i.create_chain) for create_chain
    ff.o(i.f_mkdir) refers to ff.o(i.sync_window) for sync_window
    ff.o(i.f_mkdir) refers to ff.o(i.clust2sect) for clust2sect
    ff.o(i.f_mkdir) refers to ff.o(i.mem_set) for mem_set
    ff.o(i.f_mkdir) refers to ff.o(i.st_clust) for st_clust
    ff.o(i.f_mkdir) refers to ff.o(i.mem_cpy) for mem_cpy
    ff.o(i.f_mkdir) refers to ff.o(i.dir_register) for dir_register
    ff.o(i.f_mkdir) refers to ff.o(i.remove_chain) for remove_chain
    ff.o(i.f_mkdir) refers to ff.o(i.sync_fs) for sync_fs
    ff.o(i.f_mkdir) refers to diskio.o(i.ff_memfree) for ff_memfree
    ff.o(i.f_mkfs) refers to ff.o(i.get_ldnumber) for get_ldnumber
    ff.o(i.f_mkfs) refers to diskio.o(i.disk_initialize) for disk_initialize
    ff.o(i.f_mkfs) refers to diskio.o(i.disk_ioctl) for disk_ioctl
    ff.o(i.f_mkfs) refers to ff.o(i.mem_set) for mem_set
    ff.o(i.f_mkfs) refers to diskio.o(i.disk_write) for disk_write
    ff.o(i.f_mkfs) refers to ff.o(i.mem_cpy) for mem_cpy
    ff.o(i.f_mkfs) refers to diskio.o(i.get_fattime) for get_fattime
    ff.o(i.f_mkfs) refers to ff.o(.bss) for .bss
    ff.o(i.f_mkfs) refers to ff.o(.constdata) for .constdata
    ff.o(i.f_mount) refers to ff.o(i.get_ldnumber) for get_ldnumber
    ff.o(i.f_mount) refers to ff.o(i.find_volume) for find_volume
    ff.o(i.f_mount) refers to ff.o(.bss) for .bss
    ff.o(i.f_open) refers to ff.o(i.find_volume) for find_volume
    ff.o(i.f_open) refers to diskio.o(i.ff_memalloc) for ff_memalloc
    ff.o(i.f_open) refers to ff.o(i.follow_path) for follow_path
    ff.o(i.f_open) refers to ff.o(i.dir_register) for dir_register
    ff.o(i.f_open) refers to diskio.o(i.get_fattime) for get_fattime
    ff.o(i.f_open) refers to ff.o(i.ld_clust) for ld_clust
    ff.o(i.f_open) refers to ff.o(i.st_clust) for st_clust
    ff.o(i.f_open) refers to ff.o(i.remove_chain) for remove_chain
    ff.o(i.f_open) refers to ff.o(i.move_window) for move_window
    ff.o(i.f_open) refers to diskio.o(i.ff_memfree) for ff_memfree
    ff.o(i.f_opendir) refers to ff.o(i.find_volume) for find_volume
    ff.o(i.f_opendir) refers to diskio.o(i.ff_memalloc) for ff_memalloc
    ff.o(i.f_opendir) refers to ff.o(i.follow_path) for follow_path
    ff.o(i.f_opendir) refers to diskio.o(i.ff_memfree) for ff_memfree
    ff.o(i.f_opendir) refers to ff.o(i.ld_clust) for ld_clust
    ff.o(i.f_opendir) refers to ff.o(i.dir_sdi) for dir_sdi
    ff.o(i.f_printf) refers to ff.o(i.putc_bfd) for putc_bfd
    ff.o(i.f_printf) refers to ff.o(i.f_write) for f_write
    ff.o(i.f_putc) refers to ff.o(i.putc_bfd) for putc_bfd
    ff.o(i.f_putc) refers to ff.o(i.f_write) for f_write
    ff.o(i.f_puts) refers to ff.o(i.putc_bfd) for putc_bfd
    ff.o(i.f_puts) refers to ff.o(i.f_write) for f_write
    ff.o(i.f_read) refers to ff.o(i.validate) for validate
    ff.o(i.f_read) refers to ff.o(i.clmt_clust) for clmt_clust
    ff.o(i.f_read) refers to ff.o(i.get_fat) for get_fat
    ff.o(i.f_read) refers to ff.o(i.clust2sect) for clust2sect
    ff.o(i.f_read) refers to diskio.o(i.disk_read) for disk_read
    ff.o(i.f_read) refers to ff.o(i.mem_cpy) for mem_cpy
    ff.o(i.f_read) refers to diskio.o(i.disk_write) for disk_write
    ff.o(i.f_readdir) refers to ff.o(i.validate) for validate
    ff.o(i.f_readdir) refers to diskio.o(i.ff_memalloc) for ff_memalloc
    ff.o(i.f_readdir) refers to ff.o(i.dir_read) for dir_read
    ff.o(i.f_readdir) refers to ff.o(i.dir_sdi) for dir_sdi
    ff.o(i.f_readdir) refers to ff.o(i.get_fileinfo) for get_fileinfo
    ff.o(i.f_readdir) refers to ff.o(i.dir_next) for dir_next
    ff.o(i.f_readdir) refers to diskio.o(i.ff_memfree) for ff_memfree
    ff.o(i.f_rename) refers to ff.o(i.find_volume) for find_volume
    ff.o(i.f_rename) refers to diskio.o(i.ff_memalloc) for ff_memalloc
    ff.o(i.f_rename) refers to ff.o(i.follow_path) for follow_path
    ff.o(i.f_rename) refers to ff.o(i.mem_cpy) for mem_cpy
    ff.o(i.f_rename) refers to ff.o(i.get_ldnumber) for get_ldnumber
    ff.o(i.f_rename) refers to ff.o(i.dir_register) for dir_register
    ff.o(i.f_rename) refers to ff.o(i.ld_clust) for ld_clust
    ff.o(i.f_rename) refers to ff.o(i.clust2sect) for clust2sect
    ff.o(i.f_rename) refers to ff.o(i.move_window) for move_window
    ff.o(i.f_rename) refers to ff.o(i.st_clust) for st_clust
    ff.o(i.f_rename) refers to ff.o(i.dir_remove) for dir_remove
    ff.o(i.f_rename) refers to ff.o(i.sync_fs) for sync_fs
    ff.o(i.f_rename) refers to diskio.o(i.ff_memfree) for ff_memfree
    ff.o(i.f_setlabel) refers to ff.o(i.find_volume) for find_volume
    ff.o(i.f_setlabel) refers to cc936.o(i.ff_convert) for ff_convert
    ff.o(i.f_setlabel) refers to cc936.o(i.ff_wtoupper) for ff_wtoupper
    ff.o(i.f_setlabel) refers to ff.o(i.chk_chr) for chk_chr
    ff.o(i.f_setlabel) refers to ff.o(i.dir_sdi) for dir_sdi
    ff.o(i.f_setlabel) refers to ff.o(i.dir_read) for dir_read
    ff.o(i.f_setlabel) refers to ff.o(i.dir_alloc) for dir_alloc
    ff.o(i.f_setlabel) refers to ff.o(i.mem_set) for mem_set
    ff.o(i.f_setlabel) refers to ff.o(i.mem_cpy) for mem_cpy
    ff.o(i.f_setlabel) refers to diskio.o(i.get_fattime) for get_fattime
    ff.o(i.f_setlabel) refers to ff.o(i.sync_fs) for sync_fs
    ff.o(i.f_stat) refers to ff.o(i.find_volume) for find_volume
    ff.o(i.f_stat) refers to diskio.o(i.ff_memalloc) for ff_memalloc
    ff.o(i.f_stat) refers to ff.o(i.follow_path) for follow_path
    ff.o(i.f_stat) refers to ff.o(i.get_fileinfo) for get_fileinfo
    ff.o(i.f_stat) refers to diskio.o(i.ff_memfree) for ff_memfree
    ff.o(i.f_sync) refers to ff.o(i.validate) for validate
    ff.o(i.f_sync) refers to diskio.o(i.disk_write) for disk_write
    ff.o(i.f_sync) refers to ff.o(i.move_window) for move_window
    ff.o(i.f_sync) refers to ff.o(i.st_clust) for st_clust
    ff.o(i.f_sync) refers to diskio.o(i.get_fattime) for get_fattime
    ff.o(i.f_sync) refers to ff.o(i.sync_fs) for sync_fs
    ff.o(i.f_truncate) refers to ff.o(i.validate) for validate
    ff.o(i.f_truncate) refers to ff.o(i.get_fat) for get_fat
    ff.o(i.f_truncate) refers to ff.o(i.remove_chain) for remove_chain
    ff.o(i.f_truncate) refers to ff.o(i.put_fat) for put_fat
    ff.o(i.f_truncate) refers to diskio.o(i.disk_write) for disk_write
    ff.o(i.f_unlink) refers to ff.o(i.find_volume) for find_volume
    ff.o(i.f_unlink) refers to diskio.o(i.ff_memalloc) for ff_memalloc
    ff.o(i.f_unlink) refers to ff.o(i.follow_path) for follow_path
    ff.o(i.f_unlink) refers to ff.o(i.ld_clust) for ld_clust
    ff.o(i.f_unlink) refers to ff.o(i.mem_cpy) for mem_cpy
    ff.o(i.f_unlink) refers to ff.o(i.dir_sdi) for dir_sdi
    ff.o(i.f_unlink) refers to ff.o(i.dir_read) for dir_read
    ff.o(i.f_unlink) refers to ff.o(i.dir_remove) for dir_remove
    ff.o(i.f_unlink) refers to ff.o(i.remove_chain) for remove_chain
    ff.o(i.f_unlink) refers to ff.o(i.sync_fs) for sync_fs
    ff.o(i.f_unlink) refers to diskio.o(i.ff_memfree) for ff_memfree
    ff.o(i.f_utime) refers to ff.o(i.find_volume) for find_volume
    ff.o(i.f_utime) refers to diskio.o(i.ff_memalloc) for ff_memalloc
    ff.o(i.f_utime) refers to ff.o(i.follow_path) for follow_path
    ff.o(i.f_utime) refers to diskio.o(i.ff_memfree) for ff_memfree
    ff.o(i.f_utime) refers to ff.o(i.sync_fs) for sync_fs
    ff.o(i.f_write) refers to ff.o(i.validate) for validate
    ff.o(i.f_write) refers to ff.o(i.clmt_clust) for clmt_clust
    ff.o(i.f_write) refers to ff.o(i.create_chain) for create_chain
    ff.o(i.f_write) refers to diskio.o(i.disk_write) for disk_write
    ff.o(i.f_write) refers to ff.o(i.clust2sect) for clust2sect
    ff.o(i.f_write) refers to ff.o(i.mem_cpy) for mem_cpy
    ff.o(i.f_write) refers to diskio.o(i.disk_read) for disk_read
    ff.o(i.find_volume) refers to ff.o(i.get_ldnumber) for get_ldnumber
    ff.o(i.find_volume) refers to diskio.o(i.disk_status) for disk_status
    ff.o(i.find_volume) refers to diskio.o(i.disk_initialize) for disk_initialize
    ff.o(i.find_volume) refers to ff.o(i.check_fs) for check_fs
    ff.o(i.find_volume) refers to ff.o(i.move_window) for move_window
    ff.o(i.find_volume) refers to ff.o(.bss) for .bss
    ff.o(i.find_volume) refers to ff.o(.data) for .data
    ff.o(i.fit_lfn) refers to ff.o(.constdata) for .constdata
    ff.o(i.follow_path) refers to ff.o(i.dir_sdi) for dir_sdi
    ff.o(i.follow_path) refers to ff.o(i.create_name) for create_name
    ff.o(i.follow_path) refers to ff.o(i.dir_find) for dir_find
    ff.o(i.follow_path) refers to ff.o(i.ld_clust) for ld_clust
    ff.o(i.gen_numname) refers to ff.o(i.mem_cpy) for mem_cpy
    ff.o(i.get_fat) refers to ff.o(i.move_window) for move_window
    ff.o(i.get_fileinfo) refers to cc936.o(i.ff_convert) for ff_convert
    ff.o(i.move_window) refers to ff.o(i.sync_window) for sync_window
    ff.o(i.move_window) refers to diskio.o(i.disk_read) for disk_read
    ff.o(i.pick_lfn) refers to ff.o(.constdata) for .constdata
    ff.o(i.put_fat) refers to ff.o(i.move_window) for move_window
    ff.o(i.putc_bfd) refers to ff.o(i.f_write) for f_write
    ff.o(i.remove_chain) refers to ff.o(i.get_fat) for get_fat
    ff.o(i.remove_chain) refers to ff.o(i.put_fat) for put_fat
    ff.o(i.sync_fs) refers to ff.o(i.sync_window) for sync_window
    ff.o(i.sync_fs) refers to ff.o(i.mem_set) for mem_set
    ff.o(i.sync_fs) refers to diskio.o(i.disk_write) for disk_write
    ff.o(i.sync_fs) refers to diskio.o(i.disk_ioctl) for disk_ioctl
    ff.o(i.sync_window) refers to diskio.o(i.disk_write) for disk_write
    ff.o(i.validate) refers to diskio.o(i.disk_status) for disk_status
    diskio.o(i.disk_initialize) refers to sdio_sdcard.o(i.SD_Init) for SD_Init
    diskio.o(i.disk_initialize) refers to w25q16.o(i.W25QXX_Init) for W25QXX_Init
    diskio.o(i.disk_ioctl) refers to llsdiv.o(.text) for __aeabi_ldivmod
    diskio.o(i.disk_ioctl) refers to sdio_sdcard.o(.bss) for SDCardInfo
    diskio.o(i.disk_read) refers to sdio_sdcard.o(i.SD_ReadDisk) for SD_ReadDisk
    diskio.o(i.disk_read) refers to sdio_sdcard.o(i.SD_Init) for SD_Init
    diskio.o(i.disk_read) refers to w25q16.o(i.W25QXX_Read) for W25QXX_Read
    diskio.o(i.disk_write) refers to sdio_sdcard.o(i.SD_WriteDisk) for SD_WriteDisk
    diskio.o(i.disk_write) refers to sdio_sdcard.o(i.SD_Init) for SD_Init
    diskio.o(i.disk_write) refers to w25q16.o(i.W25QXX_Write) for W25QXX_Write
    diskio.o(i.ff_memalloc) refers to head.o(i.my_malloc) for my_malloc
    diskio.o(i.ff_memfree) refers to head.o(i.my_free) for my_free
    my_fs.o(i.fs_test) refers to _printf_percent.o(.ARM.Collect$$_printf_percent$$00000000) for _printf_percent
    my_fs.o(i.fs_test) refers to _printf_d.o(.ARM.Collect$$_printf_percent$$00000009) for _printf_d
    my_fs.o(i.fs_test) refers to _printf_s.o(.ARM.Collect$$_printf_percent$$00000014) for _printf_s
    my_fs.o(i.fs_test) refers to _printf_dec.o(.text) for _printf_int_dec
    my_fs.o(i.fs_test) refers to _printf_str.o(.text) for _printf_str
    my_fs.o(i.fs_test) refers to ff.o(i.f_mount) for f_mount
    my_fs.o(i.fs_test) refers to noretval__2printf.o(.text) for __2printf
    my_fs.o(i.fs_test) refers to ff.o(i.f_getfree) for f_getfree
    my_fs.o(i.fs_test) refers to my_fs.o(i.mf_scan_files) for mf_scan_files
    my_fs.o(i.fs_test) refers to ff.o(i.f_open) for f_open
    my_fs.o(i.fs_test) refers to ff.o(i.f_read) for f_read
    my_fs.o(i.fs_test) refers to ff.o(i.f_close) for f_close
    my_fs.o(i.fs_test) refers to my_fs.o(.bss) for .bss
    my_fs.o(i.mf_getlabel) refers to _printf_percent.o(.ARM.Collect$$_printf_percent$$00000000) for _printf_percent
    my_fs.o(i.mf_getlabel) refers to _printf_s.o(.ARM.Collect$$_printf_percent$$00000014) for _printf_s
    my_fs.o(i.mf_getlabel) refers to _printf_str.o(.text) for _printf_str
    my_fs.o(i.mf_getlabel) refers to _printf_x.o(.ARM.Collect$$_printf_percent$$0000000C) for _printf_x
    my_fs.o(i.mf_getlabel) refers to _printf_hex_int.o(.text) for _printf_longlong_hex
    my_fs.o(i.mf_getlabel) refers to ff.o(i.f_getlabel) for f_getlabel
    my_fs.o(i.mf_getlabel) refers to noretval__2printf.o(.text) for __2printf
    my_fs.o(i.mf_scan_files) refers to _printf_percent.o(.ARM.Collect$$_printf_percent$$00000000) for _printf_percent
    my_fs.o(i.mf_scan_files) refers to _printf_s.o(.ARM.Collect$$_printf_percent$$00000014) for _printf_s
    my_fs.o(i.mf_scan_files) refers to _printf_str.o(.text) for _printf_str
    my_fs.o(i.mf_scan_files) refers to ff.o(i.f_opendir) for f_opendir
    my_fs.o(i.mf_scan_files) refers to noretval__2printf.o(.text) for __2printf
    my_fs.o(i.mf_scan_files) refers to ff.o(i.f_readdir) for f_readdir
    my_fs.o(i.mf_scan_files) refers to my_fs.o(.bss) for .bss
    lcd.o(i.LCD_Clear) refers to lcd.o(i.LCD_SetCursor) for LCD_SetCursor
    lcd.o(i.LCD_Clear) refers to lcd.o(i.LCD_WriteRAM_Prepare) for LCD_WriteRAM_Prepare
    lcd.o(i.LCD_Clear) refers to lcd.o(.bss) for .bss
    lcd.o(i.LCD_Color_Fill) refers to lcd.o(i.LCD_SetCursor) for LCD_SetCursor
    lcd.o(i.LCD_Color_Fill) refers to lcd.o(i.LCD_WriteRAM_Prepare) for LCD_WriteRAM_Prepare
    lcd.o(i.LCD_DisplayOff) refers to lcd.o(i.LCD_WR_REG) for LCD_WR_REG
    lcd.o(i.LCD_DisplayOn) refers to lcd.o(i.LCD_WR_REG) for LCD_WR_REG
    lcd.o(i.LCD_Display_Dir) refers to lcd.o(i.LCD_Scan_Dir) for LCD_Scan_Dir
    lcd.o(i.LCD_Display_Dir) refers to lcd.o(.bss) for .bss
    lcd.o(i.LCD_DrawLine) refers to lcd.o(i.LCD_DrawPoint) for LCD_DrawPoint
    lcd.o(i.LCD_DrawPoint) refers to lcd.o(i.LCD_SetCursor) for LCD_SetCursor
    lcd.o(i.LCD_DrawPoint) refers to lcd.o(i.LCD_WriteRAM_Prepare) for LCD_WriteRAM_Prepare
    lcd.o(i.LCD_DrawPoint) refers to lcd.o(.data) for .data
    lcd.o(i.LCD_DrawRectangle) refers to lcd.o(i.LCD_DrawLine) for LCD_DrawLine
    lcd.o(i.LCD_Draw_Circle) refers to lcd.o(i.LCD_DrawPoint) for LCD_DrawPoint
    lcd.o(i.LCD_Fast_DrawPoint) refers to lcd.o(i.LCD_WR_REG) for LCD_WR_REG
    lcd.o(i.LCD_Fast_DrawPoint) refers to lcd.o(i.LCD_WR_DATA) for LCD_WR_DATA
    lcd.o(i.LCD_Fast_DrawPoint) refers to lcd.o(.bss) for .bss
    lcd.o(i.LCD_Fill) refers to lcd.o(i.LCD_SetCursor) for LCD_SetCursor
    lcd.o(i.LCD_Fill) refers to lcd.o(i.LCD_WriteRAM_Prepare) for LCD_WriteRAM_Prepare
    lcd.o(i.LCD_Init) refers to stm32f4xx_rcc.o(i.RCC_AHB1PeriphClockCmd) for RCC_AHB1PeriphClockCmd
    lcd.o(i.LCD_Init) refers to stm32f4xx_rcc.o(i.RCC_AHB3PeriphClockCmd) for RCC_AHB3PeriphClockCmd
    lcd.o(i.LCD_Init) refers to stm32f4xx_gpio.o(i.GPIO_Init) for GPIO_Init
    lcd.o(i.LCD_Init) refers to stm32f4xx_gpio.o(i.GPIO_PinAFConfig) for GPIO_PinAFConfig
    lcd.o(i.LCD_Init) refers to stm32f4xx_fsmc.o(i.FSMC_NORSRAMInit) for FSMC_NORSRAMInit
    lcd.o(i.LCD_Init) refers to stm32f4xx_fsmc.o(i.FSMC_NORSRAMCmd) for FSMC_NORSRAMCmd
    lcd.o(i.LCD_Init) refers to lcd.o(i.lcd_soft_init) for lcd_soft_init
    lcd.o(i.LCD_ReadPoint) refers to lcd.o(i.LCD_SetCursor) for LCD_SetCursor
    lcd.o(i.LCD_ReadPoint) refers to lcd.o(i.LCD_WR_REG) for LCD_WR_REG
    lcd.o(i.LCD_ReadPoint) refers to lcd.o(i.LCD_RD_DATA) for LCD_RD_DATA
    lcd.o(i.LCD_ReadPoint) refers to lcd.o(i.opt_delay) for opt_delay
    lcd.o(i.LCD_ReadPoint) refers to lcd.o(.bss) for .bss
    lcd.o(i.LCD_ReadReg) refers to lcd.o(i.LCD_WR_REG) for LCD_WR_REG
    lcd.o(i.LCD_ReadReg) refers to clk_timer.o(i.delay_us) for delay_us
    lcd.o(i.LCD_ReadReg) refers to lcd.o(i.LCD_RD_DATA) for LCD_RD_DATA
    lcd.o(i.LCD_SSD_BackLightSet) refers to lcd.o(i.LCD_WR_REG) for LCD_WR_REG
    lcd.o(i.LCD_SSD_BackLightSet) refers to lcd.o(i.LCD_WR_DATA) for LCD_WR_DATA
    lcd.o(i.LCD_SSD_BackLightSet) refers to dflt_clz.o(x$fpl$dfltu) for __aeabi_ui2d
    lcd.o(i.LCD_SSD_BackLightSet) refers to dmul.o(x$fpl$dmul) for __aeabi_dmul
    lcd.o(i.LCD_SSD_BackLightSet) refers to dfixu.o(x$fpl$dfixu) for __aeabi_d2uiz
    lcd.o(i.LCD_Scan_Dir) refers to lcd.o(i.LCD_WriteReg) for LCD_WriteReg
    lcd.o(i.LCD_Scan_Dir) refers to lcd.o(i.LCD_WR_REG) for LCD_WR_REG
    lcd.o(i.LCD_Scan_Dir) refers to lcd.o(i.LCD_WR_DATA) for LCD_WR_DATA
    lcd.o(i.LCD_Scan_Dir) refers to lcd.o(.bss) for .bss
    lcd.o(i.LCD_SetCursor) refers to lcd.o(i.LCD_WR_REG) for LCD_WR_REG
    lcd.o(i.LCD_SetCursor) refers to lcd.o(i.LCD_WR_DATA) for LCD_WR_DATA
    lcd.o(i.LCD_SetCursor) refers to lcd.o(.bss) for .bss
    lcd.o(i.LCD_Set_Window) refers to lcd.o(i.LCD_WR_REG) for LCD_WR_REG
    lcd.o(i.LCD_Set_Window) refers to lcd.o(i.LCD_WR_DATA) for LCD_WR_DATA
    lcd.o(i.LCD_Set_Window) refers to lcd.o(.bss) for .bss
    lcd.o(i.LCD_ShowChar) refers to lcd.o(i.LCD_Fast_DrawPoint) for LCD_Fast_DrawPoint
    lcd.o(i.LCD_ShowChar) refers to lcd.o(.constdata) for .constdata
    lcd.o(i.LCD_ShowChar) refers to lcd.o(.data) for .data
    lcd.o(i.LCD_ShowChar) refers to lcd.o(.bss) for .bss
    lcd.o(i.LCD_ShowNum) refers to lcd.o(i.LCD_Pow) for LCD_Pow
    lcd.o(i.LCD_ShowNum) refers to lcd.o(i.LCD_ShowChar) for LCD_ShowChar
    lcd.o(i.LCD_ShowString) refers to lcd.o(i.LCD_ShowChar) for LCD_ShowChar
    lcd.o(i.LCD_ShowxNum) refers to lcd.o(i.LCD_Pow) for LCD_Pow
    lcd.o(i.LCD_ShowxNum) refers to lcd.o(i.LCD_ShowChar) for LCD_ShowChar
    lcd.o(i.LCD_WriteRAM_Prepare) refers to lcd.o(.bss) for .bss
    lcd.o(i.lcd_soft_init) refers to _printf_percent.o(.ARM.Collect$$_printf_percent$$00000000) for _printf_percent
    lcd.o(i.lcd_soft_init) refers to _printf_x.o(.ARM.Collect$$_printf_percent$$0000000C) for _printf_x
    lcd.o(i.lcd_soft_init) refers to _printf_hex_int.o(.text) for _printf_longlong_hex
    lcd.o(i.lcd_soft_init) refers to clk_timer.o(i.delay_ms) for delay_ms
    lcd.o(i.lcd_soft_init) refers to lcd.o(i.LCD_WriteReg) for LCD_WriteReg
    lcd.o(i.lcd_soft_init) refers to lcd.o(i.LCD_ReadReg) for LCD_ReadReg
    lcd.o(i.lcd_soft_init) refers to lcd.o(i.LCD_WR_REG) for LCD_WR_REG
    lcd.o(i.lcd_soft_init) refers to lcd.o(i.LCD_RD_DATA) for LCD_RD_DATA
    lcd.o(i.lcd_soft_init) refers to noretval__2printf.o(.text) for __2printf
    lcd.o(i.lcd_soft_init) refers to lcd.o(.bss) for .bss
    lcd.o(i.lcd_soft_init) refers to clk_timer.o(i.delay_us) for delay_us
    lcd.o(i.lcd_soft_init) refers to lcd.o(i.LCD_Display_Dir) for LCD_Display_Dir
    lcd.o(i.lcd_soft_init) refers to gpio.o(i.gpio_out) for gpio_out
    lcd.o(i.lcd_soft_init) refers to lcd.o(i.LCD_Clear) for LCD_Clear
    flash_service_if.o(i.flash_rw_service) refers to service.o(i.submit_service) for submit_service
    led_service.o(i.LED_switch_service) refers to service.o(i.submit_service) for submit_service
    rtc_service_if.o(i.rtc_time_service) refers to service.o(i.submit_service) for submit_service
    service.o(i.Service_init) refers to led_driver.o(i.led_service) for led_service
    service.o(i.Service_init) refers to service.o(.bss) for .bss
    service.o(i.Service_init) refers to rtc_service.o(i.rtc_service) for rtc_service
    service.o(i.Service_init) refers to flash_service.o(i.flash_service) for flash_service
    service.o(i.submit_service) refers to _printf_percent.o(.ARM.Collect$$_printf_percent$$00000000) for _printf_percent
    service.o(i.submit_service) refers to _printf_d.o(.ARM.Collect$$_printf_percent$$00000009) for _printf_d
    service.o(i.submit_service) refers to _printf_s.o(.ARM.Collect$$_printf_percent$$00000014) for _printf_s
    service.o(i.submit_service) refers to _printf_dec.o(.text) for _printf_int_dec
    service.o(i.submit_service) refers to _printf_str.o(.text) for _printf_str
    service.o(i.submit_service) refers to noretval__2printf.o(.text) for __2printf
    service.o(i.submit_service) refers to service.o(.bss) for .bss
    flash_service.o(i.flash_service) refers to w25q16.o(i.W25QXX_Write) for W25QXX_Write
    flash_service.o(i.flash_service) refers to w25q16.o(i.W25QXX_Read) for W25QXX_Read
    rtc_service.o(i.rtc_service) refers to rtc.o(i.get_time) for get_time
    rtc_service.o(i.rtc_service) refers to rtc.o(i.set_time) for set_time
    homeview.o(i.Homeview_create) refers to view.o(i.View_create) for View_create
    homeview.o(i.Homeview_create) refers to homeview.o(i.home_show) for home_show
    homeview.o(i.Homeview_create) refers to homeview.o(i.Homeview_process) for Homeview_process
    homeview.o(i.Homeview_process) refers to homeview.o(i.Touch_process) for Touch_process
    homeview.o(i.Homeview_process) refers to homeview.o(i.home_show) for home_show
    homeview.o(i.Touch_process) refers to view.o(i.View_switch) for View_switch
    homeview.o(i.Touch_process) refers to homeview.o(.constdata) for .constdata
    homeview.o(i.home_show) refers to lcd.o(i.LCD_Clear) for LCD_Clear
    homeview.o(i.home_show) refers to lcd.o(i.LCD_Fill) for LCD_Fill
    homeview.o(i.home_show) refers to lcd.o(i.LCD_ShowString) for LCD_ShowString
    popout.o(i.Popout_create) refers to view.o(i.View_create) for View_create
    popout.o(i.Popout_create) refers to popout.o(i.Popout_show) for Popout_show
    popout.o(i.Popout_create) refers to popout.o(i.Popout_process) for Popout_process
    popout.o(i.Popout_process) refers to popout.o(i.Touch_process) for Touch_process
    popout.o(i.Popout_process) refers to popout.o(i.Popout_show) for Popout_show
    popout.o(i.Popout_show) refers to lcd.o(i.LCD_Fill) for LCD_Fill
    popout.o(i.Popout_show) refers to lcd.o(i.LCD_ShowString) for LCD_ShowString
    popout.o(i.Touch_process) refers to view.o(i.View_destroy) for View_destroy
    popout.o(i.Touch_process) refers to popout.o(.constdata) for .constdata
    setupview.o(i.Setup_show) refers to lcd.o(i.LCD_Clear) for LCD_Clear
    setupview.o(i.Setup_show) refers to lcd.o(i.LCD_Fill) for LCD_Fill
    setupview.o(i.Setup_show) refers to lcd.o(i.LCD_ShowString) for LCD_ShowString
    setupview.o(i.Setupview_create) refers to view.o(i.View_create) for View_create
    setupview.o(i.Setupview_create) refers to setupview.o(i.Setup_show) for Setup_show
    setupview.o(i.Setupview_create) refers to setupview.o(i.Setupview_process) for Setupview_process
    setupview.o(i.Setupview_process) refers to setupview.o(i.Touch_process) for Touch_process
    setupview.o(i.Setupview_process) refers to setupview.o(i.Setup_show) for Setup_show
    setupview.o(i.Touch_process) refers to view.o(i.View_switch) for View_switch
    setupview.o(i.Touch_process) refers to setupview.o(.constdata) for .constdata
    view.o(i.App_call_back) refers to view.o(.data) for .data
    view.o(i.Send_message) refers to view.o(.bss) for .bss
    view.o(i.Send_message) refers to view.o(.data) for .data
    view.o(i.View_create) refers to view.o(.data) for .data
    view.o(i.View_create) refers to view.o(.bss) for .bss
    view.o(i.View_destroy) refers to view.o(i.Send_message) for Send_message
    view.o(i.View_destroy) refers to view.o(.data) for .data
    view.o(i.View_init) refers to homeview.o(i.Homeview_create) for Homeview_create
    view.o(i.View_switch) refers to view.o(i.Send_message) for Send_message
    view.o(i.View_switch) refers to view.o(.data) for .data
    view.o(i.View_switch) refers to view.o(.constdata) for .constdata
    view.o(i.set_call_back) refers to view.o(.data) for .data
    view.o(.constdata) refers to homeview.o(i.Homeview_create) for Homeview_create
    view.o(.constdata) refers to setupview.o(i.Setupview_create) for Setupview_create
    view.o(.constdata) refers to popout.o(i.Popout_create) for Popout_create
    use_no_semi_2.o(.text) refers (Special) to use_no_semi.o(.text) for __use_no_semihosting_swi
    llsdiv.o(.text) refers to lludivv7m.o(.text) for __aeabi_uldivmod
    __2printf.o(.text) refers to _printf_char_file.o(.text) for _printf_char_file
    __2printf.o(.text) refers to usart.o(.data) for __stdout
    noretval__2printf.o(.text) refers to _printf_char_file.o(.text) for _printf_char_file
    noretval__2printf.o(.text) refers to usart.o(.data) for __stdout
    __printf.o(.text) refers to _printf_percent.o(.ARM.Collect$$_printf_percent$$00000000) for _printf_percent
    _printf_str.o(.text) refers (Special) to _printf_char.o(.text) for _printf_cs_common
    _printf_dec.o(.text) refers to _printf_intcommon.o(.text) for _printf_int_common
    _printf_hex_ll.o(.text) refers to _printf_intcommon.o(.text) for _printf_int_common
    _printf_hex_ll.o(.text) refers to _printf_hex_ll.o(.constdata) for .constdata
    _printf_hex_int.o(.text) refers to _printf_intcommon.o(.text) for _printf_int_common
    _printf_hex_int.o(.text) refers to _printf_hex_int.o(.constdata) for .constdata
    _printf_hex_int_ll.o(.text) refers to _printf_intcommon.o(.text) for _printf_int_common
    _printf_hex_int_ll.o(.text) refers to _printf_hex_int_ll.o(.constdata) for .constdata
    _printf_hex_ptr.o(.text) refers to _printf_intcommon.o(.text) for _printf_int_common
    _printf_hex_ptr.o(.text) refers to _printf_hex_ptr.o(.constdata) for .constdata
    _printf_hex_int_ptr.o(.text) refers to _printf_intcommon.o(.text) for _printf_int_common
    _printf_hex_int_ptr.o(.text) refers to _printf_hex_int_ptr.o(.constdata) for .constdata
    _printf_hex_ll_ptr.o(.text) refers to _printf_intcommon.o(.text) for _printf_int_common
    _printf_hex_ll_ptr.o(.text) refers to _printf_hex_ll_ptr.o(.constdata) for .constdata
    _printf_hex_int_ll_ptr.o(.text) refers to _printf_intcommon.o(.text) for _printf_int_common
    _printf_hex_int_ll_ptr.o(.text) refers to _printf_hex_int_ll_ptr.o(.constdata) for .constdata
    __printf_flags.o(.text) refers to _printf_percent.o(.ARM.Collect$$_printf_percent$$00000000) for _printf_percent
    __printf_flags.o(.text) refers to __printf_flags.o(.constdata) for .constdata
    __printf_ss.o(.text) refers to _printf_percent.o(.ARM.Collect$$_printf_percent$$00000000) for _printf_percent
    __printf_flags_ss.o(.text) refers to _printf_percent.o(.ARM.Collect$$_printf_percent$$00000000) for _printf_percent
    __printf_flags_ss.o(.text) refers to __printf_flags_ss.o(.constdata) for .constdata
    __printf_wp.o(.text) refers to __printf_wp.o(i._is_digit) for _is_digit
    __printf_wp.o(.text) refers to _printf_percent.o(.ARM.Collect$$_printf_percent$$00000000) for _printf_percent
    __printf_flags_wp.o(.text) refers to __printf_wp.o(i._is_digit) for _is_digit
    __printf_flags_wp.o(.text) refers to _printf_percent.o(.ARM.Collect$$_printf_percent$$00000000) for _printf_percent
    __printf_flags_wp.o(.text) refers to __printf_flags_wp.o(.constdata) for .constdata
    __printf_ss_wp.o(.text) refers to __printf_wp.o(i._is_digit) for _is_digit
    __printf_ss_wp.o(.text) refers to _printf_percent.o(.ARM.Collect$$_printf_percent$$00000000) for _printf_percent
    __printf_flags_ss_wp.o(.text) refers to __printf_wp.o(i._is_digit) for _is_digit
    __printf_flags_ss_wp.o(.text) refers to _printf_percent.o(.ARM.Collect$$_printf_percent$$00000000) for _printf_percent
    __printf_flags_ss_wp.o(.text) refers to __printf_flags_ss_wp.o(.constdata) for .constdata
    _printf_s.o(.ARM.Collect$$_printf_percent$$00000014) refers (Weak) to _printf_char.o(.text) for _printf_string
    _printf_x.o(.ARM.Collect$$_printf_percent$$0000000C) refers (Weak) to _printf_hex_int.o(.text) for _printf_int_hex
    _printf_d.o(.ARM.Collect$$_printf_percent$$00000009) refers (Weak) to _printf_dec.o(.text) for _printf_int_dec
    _printf_u.o(.ARM.Collect$$_printf_percent$$0000000A) refers (Weak) to _printf_dec.o(.text) for _printf_int_dec
    _printf_percent.o(.ARM.Collect$$_printf_percent$$00000000) refers (Special) to _printf_percent_end.o(.ARM.Collect$$_printf_percent$$00000017) for _printf_percent_end
    rt_memcpy_v6.o(.text) refers to rt_memcpy_w.o(.text) for __aeabi_memcpy4
    aeabi_memset.o(.text) refers to rt_memclr.o(.text) for _memset
    rt_memclr.o(.text) refers to rt_memclr_w.o(.text) for _memset_w
    __main.o(!!!main) refers to __rtentry.o(.ARM.Collect$$rtentry$$00000000) for __rt_entry
    dfixu.o(x$fpl$dfixu) refers (Special) to usenofp.o(x$fpl$usenofp) for __I$use$fp
    dfixu.o(x$fpl$dfixu) refers to dnaninf.o(x$fpl$dnaninf) for __fpl_dnaninf
    dfixu.o(x$fpl$dfixur) refers (Special) to usenofp.o(x$fpl$usenofp) for __I$use$fp
    dfixu.o(x$fpl$dfixur) refers to dnaninf.o(x$fpl$dnaninf) for __fpl_dnaninf
    dflt_clz.o(x$fpl$dfltu) refers (Special) to usenofp.o(x$fpl$usenofp) for __I$use$fp
    dflt_clz.o(x$fpl$dflt) refers (Special) to usenofp.o(x$fpl$usenofp) for __I$use$fp
    dflt_clz.o(x$fpl$dfltn) refers (Special) to usenofp.o(x$fpl$usenofp) for __I$use$fp
    dmul.o(x$fpl$dmul) refers (Special) to usenofp.o(x$fpl$usenofp) for __I$use$fp
    dmul.o(x$fpl$dmul) refers to dretinf.o(x$fpl$dretinf) for __fpl_dretinf
    dmul.o(x$fpl$dmul) refers to dnaninf.o(x$fpl$dnaninf) for __fpl_dnaninf
    __rtentry.o(.ARM.Collect$$rtentry$$00000000) refers (Special) to __rtentry2.o(.ARM.Collect$$rtentry$$0000000A) for __rt_entry_li
    __rtentry.o(.ARM.Collect$$rtentry$$00000000) refers (Special) to __rtentry2.o(.ARM.Collect$$rtentry$$0000000D) for __rt_entry_main
    __rtentry.o(.ARM.Collect$$rtentry$$00000000) refers (Special) to __rtentry2.o(.ARM.Collect$$rtentry$$0000000C) for __rt_entry_postli_1
    __rtentry.o(.ARM.Collect$$rtentry$$00000000) refers (Special) to __rtentry2.o(.ARM.Collect$$rtentry$$00000009) for __rt_entry_postsh_1
    __rtentry.o(.ARM.Collect$$rtentry$$00000000) refers (Special) to __rtentry2.o(.ARM.Collect$$rtentry$$00000002) for __rt_entry_presh_1
    __rtentry.o(.ARM.Collect$$rtentry$$00000000) refers (Special) to __rtentry4.o(.ARM.Collect$$rtentry$$00000004) for __rt_entry_sh
    _printf_char.o(.text) refers (Weak) to _printf_str.o(.text) for _printf_str
    _printf_char_file.o(.text) refers to _printf_char_common.o(.text) for _printf_char_common
    _printf_char_file.o(.text) refers to ferror.o(.text) for ferror
    _printf_char_file.o(.text) refers to usart.o(i.fputc) for fputc
    dnaninf.o(x$fpl$dnaninf) refers (Special) to usenofp.o(x$fpl$usenofp) for __I$use$fp
    dretinf.o(x$fpl$dretinf) refers (Special) to usenofp.o(x$fpl$usenofp) for __I$use$fp
    __rtentry2.o(.ARM.Collect$$rtentry$$00000008) refers to boardinit2.o(.text) for _platform_post_stackheap_init
    __rtentry2.o(.ARM.Collect$$rtentry$$0000000A) refers to libinit.o(.ARM.Collect$$libinit$$00000000) for __rt_lib_init
    __rtentry2.o(.ARM.Collect$$rtentry$$0000000B) refers to boardinit3.o(.text) for _platform_post_lib_init
    __rtentry2.o(.ARM.Collect$$rtentry$$0000000D) refers to main.o(i.main) for main
    __rtentry2.o(.ARM.Collect$$rtentry$$0000000D) refers to exit.o(.text) for exit
    __rtentry2.o(.ARM.exidx) refers to __rtentry2.o(.ARM.Collect$$rtentry$$00000001) for .ARM.Collect$$rtentry$$00000001
    __rtentry2.o(.ARM.exidx) refers to __rtentry2.o(.ARM.Collect$$rtentry$$00000008) for .ARM.Collect$$rtentry$$00000008
    __rtentry2.o(.ARM.exidx) refers to __rtentry2.o(.ARM.Collect$$rtentry$$0000000A) for .ARM.Collect$$rtentry$$0000000A
    __rtentry2.o(.ARM.exidx) refers to __rtentry2.o(.ARM.Collect$$rtentry$$0000000B) for .ARM.Collect$$rtentry$$0000000B
    __rtentry2.o(.ARM.exidx) refers to __rtentry2.o(.ARM.Collect$$rtentry$$0000000D) for .ARM.Collect$$rtentry$$0000000D
    __rtentry4.o(.ARM.Collect$$rtentry$$00000004) refers to sys_stackheap_outer.o(.text) for __user_setup_stackheap
    __rtentry4.o(.ARM.exidx) refers to __rtentry4.o(.ARM.Collect$$rtentry$$00000004) for .ARM.Collect$$rtentry$$00000004
    aeabi_ldiv0_sigfpe.o(.text) refers to rt_div0.o(.text) for __rt_div0
    _printf_char_common.o(.text) refers to __printf.o(.text) for __printf
    sys_stackheap_outer.o(.text) refers to libspace.o(.text) for __user_perproc_libspace
    sys_stackheap_outer.o(.text) refers to startup_stm32f40_41xxx.o(.text) for __user_initial_stackheap
    rt_div0.o(.text) refers to defsig_fpe_outer.o(.text) for __rt_SIGFPE
    exit.o(.text) refers to rtexit.o(.ARM.Collect$$rtexit$$00000000) for __rt_exit
    libinit.o(.ARM.Collect$$libinit$$00000000) refers (Special) to libinit2.o(.ARM.Collect$$libinit$$0000002E) for __rt_lib_init_alloca_1
    libinit.o(.ARM.Collect$$libinit$$00000000) refers (Special) to libinit2.o(.ARM.Collect$$libinit$$0000002C) for __rt_lib_init_argv_1
    libinit.o(.ARM.Collect$$libinit$$00000000) refers (Special) to libinit2.o(.ARM.Collect$$libinit$$0000001B) for __rt_lib_init_atexit_1
    libinit.o(.ARM.Collect$$libinit$$00000000) refers (Special) to libinit2.o(.ARM.Collect$$libinit$$00000021) for __rt_lib_init_clock_1
    libinit.o(.ARM.Collect$$libinit$$00000000) refers (Special) to libinit2.o(.ARM.Collect$$libinit$$00000032) for __rt_lib_init_cpp_1
    libinit.o(.ARM.Collect$$libinit$$00000000) refers (Special) to libinit2.o(.ARM.Collect$$libinit$$00000030) for __rt_lib_init_exceptions_1
    libinit.o(.ARM.Collect$$libinit$$00000000) refers (Special) to libinit2.o(.ARM.Collect$$libinit$$00000001) for __rt_lib_init_fp_1
    libinit.o(.ARM.Collect$$libinit$$00000000) refers (Special) to libinit2.o(.ARM.Collect$$libinit$$0000001F) for __rt_lib_init_fp_trap_1
    libinit.o(.ARM.Collect$$libinit$$00000000) refers (Special) to libinit2.o(.ARM.Collect$$libinit$$00000023) for __rt_lib_init_getenv_1
    libinit.o(.ARM.Collect$$libinit$$00000000) refers (Special) to libinit2.o(.ARM.Collect$$libinit$$0000000A) for __rt_lib_init_heap_1
    libinit.o(.ARM.Collect$$libinit$$00000000) refers (Special) to libinit2.o(.ARM.Collect$$libinit$$00000011) for __rt_lib_init_lc_collate_1
    libinit.o(.ARM.Collect$$libinit$$00000000) refers (Special) to libinit2.o(.ARM.Collect$$libinit$$00000013) for __rt_lib_init_lc_ctype_1
    libinit.o(.ARM.Collect$$libinit$$00000000) refers (Special) to libinit2.o(.ARM.Collect$$libinit$$00000015) for __rt_lib_init_lc_monetary_1
    libinit.o(.ARM.Collect$$libinit$$00000000) refers (Special) to libinit2.o(.ARM.Collect$$libinit$$00000017) for __rt_lib_init_lc_numeric_1
    libinit.o(.ARM.Collect$$libinit$$00000000) refers (Special) to libinit2.o(.ARM.Collect$$libinit$$00000019) for __rt_lib_init_lc_time_1
    libinit.o(.ARM.Collect$$libinit$$00000000) refers (Special) to libinit2.o(.ARM.Collect$$libinit$$00000004) for __rt_lib_init_preinit_1
    libinit.o(.ARM.Collect$$libinit$$00000000) refers (Special) to libinit2.o(.ARM.Collect$$libinit$$0000000E) for __rt_lib_init_rand_1
    libinit.o(.ARM.Collect$$libinit$$00000000) refers (Special) to libinit2.o(.ARM.Collect$$libinit$$00000033) for __rt_lib_init_return
    libinit.o(.ARM.Collect$$libinit$$00000000) refers (Special) to libinit2.o(.ARM.Collect$$libinit$$0000001D) for __rt_lib_init_signal_1
    libinit.o(.ARM.Collect$$libinit$$00000000) refers (Special) to libinit2.o(.ARM.Collect$$libinit$$00000025) for __rt_lib_init_stdio_1
    libinit.o(.ARM.Collect$$libinit$$00000000) refers (Special) to libinit2.o(.ARM.Collect$$libinit$$0000000C) for __rt_lib_init_user_alloc_1
    libspace.o(.text) refers to libspace.o(.bss) for __libspace_start
    rtexit.o(.ARM.Collect$$rtexit$$00000000) refers (Special) to rtexit2.o(.ARM.Collect$$rtexit$$00000004) for __rt_exit_exit
    rtexit.o(.ARM.Collect$$rtexit$$00000000) refers (Special) to rtexit2.o(.ARM.Collect$$rtexit$$00000003) for __rt_exit_ls
    rtexit.o(.ARM.Collect$$rtexit$$00000000) refers (Special) to rtexit2.o(.ARM.Collect$$rtexit$$00000002) for __rt_exit_prels_1
    rtexit.o(.ARM.exidx) refers (Special) to rtexit2.o(.ARM.Collect$$rtexit$$00000004) for __rt_exit_exit
    rtexit.o(.ARM.exidx) refers (Special) to rtexit2.o(.ARM.Collect$$rtexit$$00000003) for __rt_exit_ls
    rtexit.o(.ARM.exidx) refers (Special) to rtexit2.o(.ARM.Collect$$rtexit$$00000002) for __rt_exit_prels_1
    rtexit.o(.ARM.exidx) refers to rtexit.o(.ARM.Collect$$rtexit$$00000000) for .ARM.Collect$$rtexit$$00000000
    defsig_fpe_outer.o(.text) refers to defsig_fpe_inner.o(.text) for __rt_SIGFPE_inner
    defsig_fpe_outer.o(.text) refers to defsig_exit.o(.text) for __sig_exit
    defsig_fpe_formal.o(.text) refers to rt_raise.o(.text) for __rt_raise
    libinit2.o(.ARM.Collect$$libinit$$00000001) refers to fpinit.o(x$fpl$fpinit) for _fp_init
    libinit2.o(.ARM.Collect$$libinit$$00000010) refers to libinit2.o(.ARM.Collect$$libinit$$0000000F) for .ARM.Collect$$libinit$$0000000F
    libinit2.o(.ARM.Collect$$libinit$$00000012) refers to libinit2.o(.ARM.Collect$$libinit$$0000000F) for .ARM.Collect$$libinit$$0000000F
    libinit2.o(.ARM.Collect$$libinit$$00000014) refers to libinit2.o(.ARM.Collect$$libinit$$0000000F) for .ARM.Collect$$libinit$$0000000F
    libinit2.o(.ARM.Collect$$libinit$$00000016) refers to libinit2.o(.ARM.Collect$$libinit$$0000000F) for .ARM.Collect$$libinit$$0000000F
    libinit2.o(.ARM.Collect$$libinit$$00000018) refers to libinit2.o(.ARM.Collect$$libinit$$0000000F) for .ARM.Collect$$libinit$$0000000F
    libinit2.o(.ARM.Collect$$libinit$$00000026) refers to argv_veneer.o(.emb_text) for __ARM_argv_veneer
    libinit2.o(.ARM.Collect$$libinit$$00000027) refers to argv_veneer.o(.emb_text) for __ARM_argv_veneer
    rtexit2.o(.ARM.Collect$$rtexit$$00000003) refers to libshutdown.o(.ARM.Collect$$libshutdown$$00000000) for __rt_lib_shutdown
    rtexit2.o(.ARM.Collect$$rtexit$$00000004) refers to usart.o(i._sys_exit) for _sys_exit
    rtexit2.o(.ARM.exidx) refers to rtexit2.o(.ARM.Collect$$rtexit$$00000001) for .ARM.Collect$$rtexit$$00000001
    rtexit2.o(.ARM.exidx) refers to rtexit2.o(.ARM.Collect$$rtexit$$00000003) for .ARM.Collect$$rtexit$$00000003
    rtexit2.o(.ARM.exidx) refers to rtexit2.o(.ARM.Collect$$rtexit$$00000004) for .ARM.Collect$$rtexit$$00000004
    rt_raise.o(.text) refers to __raise.o(.text) for __raise
    rt_raise.o(.text) refers to usart.o(i._sys_exit) for _sys_exit
    defsig_exit.o(.text) refers to usart.o(i._sys_exit) for _sys_exit
    defsig_fpe_inner.o(.text) refers to defsig_general.o(.text) for __default_signal_display
    argv_veneer.o(.emb_text) refers to no_argv.o(.text) for __ARM_get_argv
    __raise.o(.text) refers to defsig.o(CL$$defsig) for __default_signal_handler
    defsig_general.o(.text) refers to usart.o(i._ttywrch) for _ttywrch
    _get_argv_nomalloc.o(.text) refers (Special) to hrguard.o(.text) for __heap_region$guard
    _get_argv_nomalloc.o(.text) refers to defsig_rtmem_outer.o(.text) for __rt_SIGRTMEM
    _get_argv_nomalloc.o(.text) refers to sys_command.o(.text) for _sys_command_string
    libshutdown.o(.ARM.Collect$$libshutdown$$00000000) refers (Special) to libshutdown2.o(.ARM.Collect$$libshutdown$$00000002) for __rt_lib_shutdown_cpp_1
    libshutdown.o(.ARM.Collect$$libshutdown$$00000000) refers (Special) to libshutdown2.o(.ARM.Collect$$libshutdown$$00000007) for __rt_lib_shutdown_fp_trap_1
    libshutdown.o(.ARM.Collect$$libshutdown$$00000000) refers (Special) to libshutdown2.o(.ARM.Collect$$libshutdown$$0000000F) for __rt_lib_shutdown_heap_1
    libshutdown.o(.ARM.Collect$$libshutdown$$00000000) refers (Special) to libshutdown2.o(.ARM.Collect$$libshutdown$$00000010) for __rt_lib_shutdown_return
    libshutdown.o(.ARM.Collect$$libshutdown$$00000000) refers (Special) to libshutdown2.o(.ARM.Collect$$libshutdown$$0000000A) for __rt_lib_shutdown_signal_1
    libshutdown.o(.ARM.Collect$$libshutdown$$00000000) refers (Special) to libshutdown2.o(.ARM.Collect$$libshutdown$$00000004) for __rt_lib_shutdown_stdio_1
    libshutdown.o(.ARM.Collect$$libshutdown$$00000000) refers (Special) to libshutdown2.o(.ARM.Collect$$libshutdown$$0000000C) for __rt_lib_shutdown_user_alloc_1
    sys_command.o(.text) refers (Special) to use_no_semi.o(.text) for __I$use$semihosting
    sys_command.o(.text) refers (Special) to indicate_semi.o(.text) for __semihosting_library_function
    defsig_rtmem_outer.o(.text) refers to defsig_rtmem_inner.o(.text) for __rt_SIGRTMEM_inner
    defsig_rtmem_outer.o(.text) refers to defsig_exit.o(.text) for __sig_exit
    defsig_rtmem_formal.o(.text) refers to rt_raise.o(.text) for __rt_raise
    defsig.o(CL$$defsig) refers to defsig_fpe_inner.o(.text) for __rt_SIGFPE_inner
    defsig.o(CL$$defsig) refers to defsig_rtmem_inner.o(.text) for __rt_SIGRTMEM_inner
    defsig_abrt_inner.o(.text) refers to defsig_general.o(.text) for __default_signal_display
    defsig_rtred_inner.o(.text) refers to defsig_general.o(.text) for __default_signal_display
    defsig_rtmem_inner.o(.text) refers to defsig_general.o(.text) for __default_signal_display
    defsig_stak_inner.o(.text) refers to defsig_general.o(.text) for __default_signal_display
    defsig_pvfn_inner.o(.text) refers to defsig_general.o(.text) for __default_signal_display
    defsig_cppl_inner.o(.text) refers to defsig_general.o(.text) for __default_signal_display
    defsig_segv_inner.o(.text) refers to defsig_general.o(.text) for __default_signal_display
    defsig_other.o(.text) refers to defsig_general.o(.text) for __default_signal_display


==============================================================================

Removing Unused input sections from the image.

    Removing main.o(.rev16_text), (4 bytes).
    Removing main.o(.revsh_text), (4 bytes).
    Removing stm32f4xx_it.o(.rev16_text), (4 bytes).
    Removing stm32f4xx_it.o(.revsh_text), (4 bytes).
    Removing system_stm32f4xx.o(.rev16_text), (4 bytes).
    Removing system_stm32f4xx.o(.revsh_text), (4 bytes).
    Removing system_stm32f4xx.o(i.SystemCoreClockUpdate), (132 bytes).
    Removing misc.o(.rev16_text), (4 bytes).
    Removing misc.o(.revsh_text), (4 bytes).
    Removing misc.o(i.NVIC_SetVectorTable), (20 bytes).
    Removing misc.o(i.NVIC_SystemLPConfig), (28 bytes).
    Removing misc.o(i.SysTick_CLKSourceConfig), (28 bytes).
    Removing stm32f4xx_dma.o(.rev16_text), (4 bytes).
    Removing stm32f4xx_dma.o(.revsh_text), (4 bytes).
    Removing stm32f4xx_dma.o(i.DMA_ClearFlag), (44 bytes).
    Removing stm32f4xx_dma.o(i.DMA_ClearITPendingBit), (44 bytes).
    Removing stm32f4xx_dma.o(i.DMA_Cmd), (24 bytes).
    Removing stm32f4xx_dma.o(i.DMA_DeInit), (300 bytes).
    Removing stm32f4xx_dma.o(i.DMA_DoubleBufferModeCmd), (24 bytes).
    Removing stm32f4xx_dma.o(i.DMA_DoubleBufferModeConfig), (26 bytes).
    Removing stm32f4xx_dma.o(i.DMA_FlowControllerConfig), (24 bytes).
    Removing stm32f4xx_dma.o(i.DMA_GetCmdStatus), (14 bytes).
    Removing stm32f4xx_dma.o(i.DMA_GetCurrDataCounter), (6 bytes).
    Removing stm32f4xx_dma.o(i.DMA_GetCurrentMemoryTarget), (14 bytes).
    Removing stm32f4xx_dma.o(i.DMA_GetFIFOStatus), (8 bytes).
    Removing stm32f4xx_dma.o(i.DMA_GetFlagStatus), (52 bytes).
    Removing stm32f4xx_dma.o(i.DMA_GetITStatus), (84 bytes).
    Removing stm32f4xx_dma.o(i.DMA_ITConfig), (50 bytes).
    Removing stm32f4xx_dma.o(i.DMA_Init), (84 bytes).
    Removing stm32f4xx_dma.o(i.DMA_MemoryTargetConfig), (12 bytes).
    Removing stm32f4xx_dma.o(i.DMA_PeriphIncOffsetSizeConfig), (24 bytes).
    Removing stm32f4xx_dma.o(i.DMA_SetCurrDataCounter), (4 bytes).
    Removing stm32f4xx_dma.o(i.DMA_StructInit), (34 bytes).
    Removing stm32f4xx_exti.o(.rev16_text), (4 bytes).
    Removing stm32f4xx_exti.o(.revsh_text), (4 bytes).
    Removing stm32f4xx_exti.o(i.EXTI_ClearFlag), (12 bytes).
    Removing stm32f4xx_exti.o(i.EXTI_DeInit), (36 bytes).
    Removing stm32f4xx_exti.o(i.EXTI_GenerateSWInterrupt), (16 bytes).
    Removing stm32f4xx_exti.o(i.EXTI_GetFlagStatus), (20 bytes).
    Removing stm32f4xx_exti.o(i.EXTI_GetITStatus), (20 bytes).
    Removing stm32f4xx_exti.o(i.EXTI_StructInit), (14 bytes).
    Removing stm32f4xx_fsmc.o(.rev16_text), (4 bytes).
    Removing stm32f4xx_fsmc.o(.revsh_text), (4 bytes).
    Removing stm32f4xx_fsmc.o(i.FSMC_ClearFlag), (42 bytes).
    Removing stm32f4xx_fsmc.o(i.FSMC_ClearITPendingBit), (48 bytes).
    Removing stm32f4xx_fsmc.o(i.FSMC_GetECC), (18 bytes).
    Removing stm32f4xx_fsmc.o(i.FSMC_GetFlagStatus), (40 bytes).
    Removing stm32f4xx_fsmc.o(i.FSMC_GetITStatus), (52 bytes).
    Removing stm32f4xx_fsmc.o(i.FSMC_ITConfig), (86 bytes).
    Removing stm32f4xx_fsmc.o(i.FSMC_NANDCmd), (64 bytes).
    Removing stm32f4xx_fsmc.o(i.FSMC_NANDDeInit), (40 bytes).
    Removing stm32f4xx_fsmc.o(i.FSMC_NANDECCCmd), (64 bytes).
    Removing stm32f4xx_fsmc.o(i.FSMC_NANDInit), (104 bytes).
    Removing stm32f4xx_fsmc.o(i.FSMC_NANDStructInit), (54 bytes).
    Removing stm32f4xx_fsmc.o(i.FSMC_NORSRAMDeInit), (48 bytes).
    Removing stm32f4xx_fsmc.o(i.FSMC_NORSRAMStructInit), (48 bytes).
    Removing stm32f4xx_fsmc.o(i.FSMC_PCCARDCmd), (36 bytes).
    Removing stm32f4xx_fsmc.o(i.FSMC_PCCARDDeInit), (28 bytes).
    Removing stm32f4xx_fsmc.o(i.FSMC_PCCARDInit), (104 bytes).
    Removing stm32f4xx_fsmc.o(i.FSMC_PCCARDStructInit), (60 bytes).
    Removing stm32f4xx_fsmc.o(.constdata), (28 bytes).
    Removing stm32f4xx_gpio.o(.rev16_text), (4 bytes).
    Removing stm32f4xx_gpio.o(.revsh_text), (4 bytes).
    Removing stm32f4xx_gpio.o(i.GPIO_DeInit), (340 bytes).
    Removing stm32f4xx_gpio.o(i.GPIO_PinLockConfig), (26 bytes).
    Removing stm32f4xx_gpio.o(i.GPIO_ReadInputData), (6 bytes).
    Removing stm32f4xx_gpio.o(i.GPIO_ReadOutputData), (6 bytes).
    Removing stm32f4xx_gpio.o(i.GPIO_ReadOutputDataBit), (14 bytes).
    Removing stm32f4xx_gpio.o(i.GPIO_StructInit), (18 bytes).
    Removing stm32f4xx_gpio.o(i.GPIO_ToggleBits), (8 bytes).
    Removing stm32f4xx_gpio.o(i.GPIO_Write), (4 bytes).
    Removing stm32f4xx_gpio.o(i.GPIO_WriteBit), (12 bytes).
    Removing stm32f4xx_pwr.o(.rev16_text), (4 bytes).
    Removing stm32f4xx_pwr.o(.revsh_text), (4 bytes).
    Removing stm32f4xx_pwr.o(i.PWR_BackupRegulatorCmd), (12 bytes).
    Removing stm32f4xx_pwr.o(i.PWR_ClearFlag), (16 bytes).
    Removing stm32f4xx_pwr.o(i.PWR_DeInit), (24 bytes).
    Removing stm32f4xx_pwr.o(i.PWR_EnterSTANDBYMode), (32 bytes).
    Removing stm32f4xx_pwr.o(i.PWR_EnterSTOPMode), (56 bytes).
    Removing stm32f4xx_pwr.o(i.PWR_EnterUnderDriveSTOPMode), (56 bytes).
    Removing stm32f4xx_pwr.o(i.PWR_FlashPowerDownCmd), (12 bytes).
    Removing stm32f4xx_pwr.o(i.PWR_GetFlagStatus), (20 bytes).
    Removing stm32f4xx_pwr.o(i.PWR_LowRegulatorLowVoltageCmd), (24 bytes).
    Removing stm32f4xx_pwr.o(i.PWR_MainRegulatorLowVoltageCmd), (24 bytes).
    Removing stm32f4xx_pwr.o(i.PWR_MainRegulatorModeConfig), (20 bytes).
    Removing stm32f4xx_pwr.o(i.PWR_OverDriveCmd), (12 bytes).
    Removing stm32f4xx_pwr.o(i.PWR_OverDriveSWCmd), (12 bytes).
    Removing stm32f4xx_pwr.o(i.PWR_PVDCmd), (12 bytes).
    Removing stm32f4xx_pwr.o(i.PWR_PVDLevelConfig), (20 bytes).
    Removing stm32f4xx_pwr.o(i.PWR_UnderDriveCmd), (32 bytes).
    Removing stm32f4xx_pwr.o(i.PWR_WakeUpPinCmd), (12 bytes).
    Removing stm32f4xx_rcc.o(.rev16_text), (4 bytes).
    Removing stm32f4xx_rcc.o(.revsh_text), (4 bytes).
    Removing stm32f4xx_rcc.o(i.RCC_AHB1PeriphClockLPModeCmd), (28 bytes).
    Removing stm32f4xx_rcc.o(i.RCC_AHB1PeriphResetCmd), (28 bytes).
    Removing stm32f4xx_rcc.o(i.RCC_AHB2PeriphClockLPModeCmd), (28 bytes).
    Removing stm32f4xx_rcc.o(i.RCC_AHB2PeriphResetCmd), (28 bytes).
    Removing stm32f4xx_rcc.o(i.RCC_AHB3PeriphClockLPModeCmd), (28 bytes).
    Removing stm32f4xx_rcc.o(i.RCC_AHB3PeriphResetCmd), (28 bytes).
    Removing stm32f4xx_rcc.o(i.RCC_APB1PeriphClockLPModeCmd), (28 bytes).
    Removing stm32f4xx_rcc.o(i.RCC_APB2PeriphClockLPModeCmd), (28 bytes).
    Removing stm32f4xx_rcc.o(i.RCC_AdjustHSICalibrationValue), (20 bytes).
    Removing stm32f4xx_rcc.o(i.RCC_BackupResetCmd), (12 bytes).
    Removing stm32f4xx_rcc.o(i.RCC_ClearFlag), (16 bytes).
    Removing stm32f4xx_rcc.o(i.RCC_ClearITPendingBit), (12 bytes).
    Removing stm32f4xx_rcc.o(i.RCC_ClockSecuritySystemCmd), (12 bytes).
    Removing stm32f4xx_rcc.o(i.RCC_DeInit), (84 bytes).
    Removing stm32f4xx_rcc.o(i.RCC_GetITStatus), (20 bytes).
    Removing stm32f4xx_rcc.o(i.RCC_HSICmd), (12 bytes).
    Removing stm32f4xx_rcc.o(i.RCC_I2SCLKConfig), (12 bytes).
    Removing stm32f4xx_rcc.o(i.RCC_ITConfig), (28 bytes).
    Removing stm32f4xx_rcc.o(i.RCC_LSEModeConfig), (32 bytes).
    Removing stm32f4xx_rcc.o(i.RCC_LSICmd), (12 bytes).
    Removing stm32f4xx_rcc.o(i.RCC_LTDCCLKDivConfig), (20 bytes).
    Removing stm32f4xx_rcc.o(i.RCC_MCO1Config), (20 bytes).
    Removing stm32f4xx_rcc.o(i.RCC_MCO2Config), (20 bytes).
    Removing stm32f4xx_rcc.o(i.RCC_PLLI2SCmd), (12 bytes).
    Removing stm32f4xx_rcc.o(i.RCC_PLLI2SConfig), (16 bytes).
    Removing stm32f4xx_rcc.o(i.RCC_PLLSAICmd), (12 bytes).
    Removing stm32f4xx_rcc.o(i.RCC_PLLSAIConfig), (20 bytes).
    Removing stm32f4xx_rcc.o(i.RCC_SAIBlockACLKConfig), (20 bytes).
    Removing stm32f4xx_rcc.o(i.RCC_SAIBlockBCLKConfig), (20 bytes).
    Removing stm32f4xx_rcc.o(i.RCC_SAIPLLI2SClkDivConfig), (20 bytes).
    Removing stm32f4xx_rcc.o(i.RCC_SAIPLLSAIClkDivConfig), (24 bytes).
    Removing stm32f4xx_rcc.o(i.RCC_TIMCLKPresConfig), (12 bytes).
    Removing stm32f4xx_rng.o(.rev16_text), (4 bytes).
    Removing stm32f4xx_rng.o(.revsh_text), (4 bytes).
    Removing stm32f4xx_rng.o(i.RNG_ClearFlag), (16 bytes).
    Removing stm32f4xx_rng.o(i.RNG_ClearITPendingBit), (16 bytes).
    Removing stm32f4xx_rng.o(i.RNG_DeInit), (22 bytes).
    Removing stm32f4xx_rng.o(i.RNG_GetITStatus), (20 bytes).
    Removing stm32f4xx_rng.o(i.RNG_GetRandomNumber), (12 bytes).
    Removing stm32f4xx_rng.o(i.RNG_ITConfig), (32 bytes).
    Removing stm32f4xx_rtc.o(.rev16_text), (4 bytes).
    Removing stm32f4xx_rtc.o(.revsh_text), (4 bytes).
    Removing stm32f4xx_rtc.o(i.RTC_AlarmCmd), (92 bytes).
    Removing stm32f4xx_rtc.o(i.RTC_AlarmStructInit), (20 bytes).
    Removing stm32f4xx_rtc.o(i.RTC_AlarmSubSecondConfig), (44 bytes).
    Removing stm32f4xx_rtc.o(i.RTC_BypassShadowCmd), (48 bytes).
    Removing stm32f4xx_rtc.o(i.RTC_CalibOutputCmd), (48 bytes).
    Removing stm32f4xx_rtc.o(i.RTC_CalibOutputConfig), (40 bytes).
    Removing stm32f4xx_rtc.o(i.RTC_ClearITPendingBit), (28 bytes).
    Removing stm32f4xx_rtc.o(i.RTC_CoarseCalibCmd), (64 bytes).
    Removing stm32f4xx_rtc.o(i.RTC_CoarseCalibConfig), (52 bytes).
    Removing stm32f4xx_rtc.o(i.RTC_DateStructInit), (14 bytes).
    Removing stm32f4xx_rtc.o(i.RTC_DayLightSavingConfig), (44 bytes).
    Removing stm32f4xx_rtc.o(i.RTC_DeInit), (184 bytes).
    Removing stm32f4xx_rtc.o(i.RTC_GetAlarm), (108 bytes).
    Removing stm32f4xx_rtc.o(i.RTC_GetAlarmSubSecond), (32 bytes).
    Removing stm32f4xx_rtc.o(i.RTC_GetITStatus), (56 bytes).
    Removing stm32f4xx_rtc.o(i.RTC_GetStoreOperation), (16 bytes).
    Removing stm32f4xx_rtc.o(i.RTC_GetSubSecond), (16 bytes).
    Removing stm32f4xx_rtc.o(i.RTC_GetTimeStamp), (136 bytes).
    Removing stm32f4xx_rtc.o(i.RTC_GetTimeStampSubSecond), (12 bytes).
    Removing stm32f4xx_rtc.o(i.RTC_GetWakeUpCounter), (12 bytes).
    Removing stm32f4xx_rtc.o(i.RTC_ITConfig), (68 bytes).
    Removing stm32f4xx_rtc.o(i.RTC_OutputConfig), (44 bytes).
    Removing stm32f4xx_rtc.o(i.RTC_OutputTypeConfig), (24 bytes).
    Removing stm32f4xx_rtc.o(i.RTC_RefClockCmd), (64 bytes).
    Removing stm32f4xx_rtc.o(i.RTC_SetAlarm), (188 bytes).
    Removing stm32f4xx_rtc.o(i.RTC_SetWakeUpCounter), (28 bytes).
    Removing stm32f4xx_rtc.o(i.RTC_SmoothCalibConfig), (76 bytes).
    Removing stm32f4xx_rtc.o(i.RTC_StructInit), (14 bytes).
    Removing stm32f4xx_rtc.o(i.RTC_SynchroShiftConfig), (96 bytes).
    Removing stm32f4xx_rtc.o(i.RTC_TamperCmd), (28 bytes).
    Removing stm32f4xx_rtc.o(i.RTC_TamperFilterConfig), (24 bytes).
    Removing stm32f4xx_rtc.o(i.RTC_TamperPinSelection), (24 bytes).
    Removing stm32f4xx_rtc.o(i.RTC_TamperPinsPrechargeDuration), (24 bytes).
    Removing stm32f4xx_rtc.o(i.RTC_TamperPullUpCmd), (32 bytes).
    Removing stm32f4xx_rtc.o(i.RTC_TamperSamplingFreqConfig), (24 bytes).
    Removing stm32f4xx_rtc.o(i.RTC_TamperTriggerConfig), (32 bytes).
    Removing stm32f4xx_rtc.o(i.RTC_TimeStampCmd), (52 bytes).
    Removing stm32f4xx_rtc.o(i.RTC_TimeStampOnTamperDetectionCmd), (32 bytes).
    Removing stm32f4xx_rtc.o(i.RTC_TimeStampPinSelection), (24 bytes).
    Removing stm32f4xx_rtc.o(i.RTC_TimeStructInit), (12 bytes).
    Removing stm32f4xx_rtc.o(i.RTC_WakeUpClockConfig), (40 bytes).
    Removing stm32f4xx_rtc.o(i.RTC_WakeUpCmd), (96 bytes).
    Removing stm32f4xx_rtc.o(i.RTC_WriteProtectionCmd), (28 bytes).
    Removing stm32f4xx_spi.o(.rev16_text), (4 bytes).
    Removing stm32f4xx_spi.o(.revsh_text), (4 bytes).
    Removing stm32f4xx_spi.o(i.I2S_Cmd), (24 bytes).
    Removing stm32f4xx_spi.o(i.I2S_FullDuplexConfig), (58 bytes).
    Removing stm32f4xx_spi.o(i.I2S_Init), (240 bytes).
    Removing stm32f4xx_spi.o(i.I2S_StructInit), (18 bytes).
    Removing stm32f4xx_spi.o(i.SPI_BiDirectionalLineConfig), (26 bytes).
    Removing stm32f4xx_spi.o(i.SPI_CalculateCRC), (24 bytes).
    Removing stm32f4xx_spi.o(i.SPI_DataSizeConfig), (16 bytes).
    Removing stm32f4xx_spi.o(i.SPI_GetCRC), (12 bytes).
    Removing stm32f4xx_spi.o(i.SPI_GetCRCPolynomial), (4 bytes).
    Removing stm32f4xx_spi.o(i.SPI_I2S_ClearFlag), (6 bytes).
    Removing stm32f4xx_spi.o(i.SPI_I2S_ClearITPendingBit), (14 bytes).
    Removing stm32f4xx_spi.o(i.SPI_I2S_DMACmd), (20 bytes).
    Removing stm32f4xx_spi.o(i.SPI_I2S_DeInit), (196 bytes).
    Removing stm32f4xx_spi.o(i.SPI_I2S_GetITStatus), (44 bytes).
    Removing stm32f4xx_spi.o(i.SPI_I2S_ITConfig), (28 bytes).
    Removing stm32f4xx_spi.o(i.SPI_NSSInternalSoftwareConfig), (28 bytes).
    Removing stm32f4xx_spi.o(i.SPI_SSOutputCmd), (24 bytes).
    Removing stm32f4xx_spi.o(i.SPI_StructInit), (24 bytes).
    Removing stm32f4xx_spi.o(i.SPI_TIModeCmd), (24 bytes).
    Removing stm32f4xx_spi.o(i.SPI_TransmitCRC), (10 bytes).
    Removing stm32f4xx_syscfg.o(.rev16_text), (4 bytes).
    Removing stm32f4xx_syscfg.o(.revsh_text), (4 bytes).
    Removing stm32f4xx_syscfg.o(i.SYSCFG_CompensationCellCmd), (12 bytes).
    Removing stm32f4xx_syscfg.o(i.SYSCFG_DeInit), (24 bytes).
    Removing stm32f4xx_syscfg.o(i.SYSCFG_ETH_MediaInterfaceConfig), (12 bytes).
    Removing stm32f4xx_syscfg.o(i.SYSCFG_GetCompensationCellStatus), (20 bytes).
    Removing stm32f4xx_syscfg.o(i.SYSCFG_MemoryRemapConfig), (12 bytes).
    Removing stm32f4xx_syscfg.o(i.SYSCFG_MemorySwappingBank), (12 bytes).
    Removing stm32f4xx_tim.o(.rev16_text), (4 bytes).
    Removing stm32f4xx_tim.o(.revsh_text), (4 bytes).
    Removing stm32f4xx_tim.o(i.TI1_Config), (46 bytes).
    Removing stm32f4xx_tim.o(i.TI2_Config), (54 bytes).
    Removing stm32f4xx_tim.o(i.TI3_Config), (50 bytes).
    Removing stm32f4xx_tim.o(i.TI4_Config), (54 bytes).
    Removing stm32f4xx_tim.o(i.TIM_ARRPreloadConfig), (24 bytes).
    Removing stm32f4xx_tim.o(i.TIM_BDTRConfig), (34 bytes).
    Removing stm32f4xx_tim.o(i.TIM_BDTRStructInit), (18 bytes).
    Removing stm32f4xx_tim.o(i.TIM_CCPreloadControl), (24 bytes).
    Removing stm32f4xx_tim.o(i.TIM_CCxCmd), (22 bytes).
    Removing stm32f4xx_tim.o(i.TIM_CCxNCmd), (22 bytes).
    Removing stm32f4xx_tim.o(i.TIM_ClearFlag), (6 bytes).
    Removing stm32f4xx_tim.o(i.TIM_ClearITPendingBit), (6 bytes).
    Removing stm32f4xx_tim.o(i.TIM_ClearOC1Ref), (12 bytes).
    Removing stm32f4xx_tim.o(i.TIM_ClearOC2Ref), (20 bytes).
    Removing stm32f4xx_tim.o(i.TIM_ClearOC3Ref), (12 bytes).
    Removing stm32f4xx_tim.o(i.TIM_ClearOC4Ref), (20 bytes).
    Removing stm32f4xx_tim.o(i.TIM_Cmd), (24 bytes).
    Removing stm32f4xx_tim.o(i.TIM_CounterModeConfig), (12 bytes).
    Removing stm32f4xx_tim.o(i.TIM_CtrlPWMOutputs), (28 bytes).
    Removing stm32f4xx_tim.o(i.TIM_DMACmd), (20 bytes).
    Removing stm32f4xx_tim.o(i.TIM_DMAConfig), (8 bytes).
    Removing stm32f4xx_tim.o(i.TIM_DeInit), (428 bytes).
    Removing stm32f4xx_tim.o(i.TIM_ETRClockMode1Config), (32 bytes).
    Removing stm32f4xx_tim.o(i.TIM_ETRClockMode2Config), (20 bytes).
    Removing stm32f4xx_tim.o(i.TIM_ETRConfig), (24 bytes).
    Removing stm32f4xx_tim.o(i.TIM_EncoderInterfaceConfig), (50 bytes).
    Removing stm32f4xx_tim.o(i.TIM_ForcedOC1Config), (12 bytes).
    Removing stm32f4xx_tim.o(i.TIM_ForcedOC2Config), (20 bytes).
    Removing stm32f4xx_tim.o(i.TIM_ForcedOC3Config), (12 bytes).
    Removing stm32f4xx_tim.o(i.TIM_ForcedOC4Config), (20 bytes).
    Removing stm32f4xx_tim.o(i.TIM_GenerateEvent), (4 bytes).
    Removing stm32f4xx_tim.o(i.TIM_GetCapture1), (4 bytes).
    Removing stm32f4xx_tim.o(i.TIM_GetCapture2), (4 bytes).
    Removing stm32f4xx_tim.o(i.TIM_GetCapture3), (4 bytes).
    Removing stm32f4xx_tim.o(i.TIM_GetCapture4), (4 bytes).
    Removing stm32f4xx_tim.o(i.TIM_GetCounter), (4 bytes).
    Removing stm32f4xx_tim.o(i.TIM_GetFlagStatus), (14 bytes).
    Removing stm32f4xx_tim.o(i.TIM_GetITStatus), (24 bytes).
    Removing stm32f4xx_tim.o(i.TIM_GetPrescaler), (4 bytes).
    Removing stm32f4xx_tim.o(i.TIM_ICInit), (98 bytes).
    Removing stm32f4xx_tim.o(i.TIM_ICStructInit), (16 bytes).
    Removing stm32f4xx_tim.o(i.TIM_ITConfig), (20 bytes).
    Removing stm32f4xx_tim.o(i.TIM_ITRxExternalClockConfig), (20 bytes).
    Removing stm32f4xx_tim.o(i.TIM_InternalClockConfig), (10 bytes).
    Removing stm32f4xx_tim.o(i.TIM_OC1FastConfig), (12 bytes).
    Removing stm32f4xx_tim.o(i.TIM_OC1Init), (104 bytes).
    Removing stm32f4xx_tim.o(i.TIM_OC1NPolarityConfig), (12 bytes).
    Removing stm32f4xx_tim.o(i.TIM_OC1PolarityConfig), (12 bytes).
    Removing stm32f4xx_tim.o(i.TIM_OC1PreloadConfig), (12 bytes).
    Removing stm32f4xx_tim.o(i.TIM_OC2FastConfig), (20 bytes).
    Removing stm32f4xx_tim.o(i.TIM_OC2Init), (136 bytes).
    Removing stm32f4xx_tim.o(i.TIM_OC2NPolarityConfig), (20 bytes).
    Removing stm32f4xx_tim.o(i.TIM_OC2PolarityConfig), (20 bytes).
    Removing stm32f4xx_tim.o(i.TIM_OC2PreloadConfig), (20 bytes).
    Removing stm32f4xx_tim.o(i.TIM_OC3FastConfig), (12 bytes).
    Removing stm32f4xx_tim.o(i.TIM_OC3Init), (132 bytes).
    Removing stm32f4xx_tim.o(i.TIM_OC3NPolarityConfig), (20 bytes).
    Removing stm32f4xx_tim.o(i.TIM_OC3PolarityConfig), (20 bytes).
    Removing stm32f4xx_tim.o(i.TIM_OC3PreloadConfig), (12 bytes).
    Removing stm32f4xx_tim.o(i.TIM_OC4FastConfig), (20 bytes).
    Removing stm32f4xx_tim.o(i.TIM_OC4Init), (100 bytes).
    Removing stm32f4xx_tim.o(i.TIM_OC4PolarityConfig), (20 bytes).
    Removing stm32f4xx_tim.o(i.TIM_OC4PreloadConfig), (20 bytes).
    Removing stm32f4xx_tim.o(i.TIM_OCStructInit), (20 bytes).
    Removing stm32f4xx_tim.o(i.TIM_PWMIConfig), (110 bytes).
    Removing stm32f4xx_tim.o(i.TIM_PrescalerConfig), (6 bytes).
    Removing stm32f4xx_tim.o(i.TIM_RemapConfig), (6 bytes).
    Removing stm32f4xx_tim.o(i.TIM_SelectCCDMA), (24 bytes).
    Removing stm32f4xx_tim.o(i.TIM_SelectCOM), (24 bytes).
    Removing stm32f4xx_tim.o(i.TIM_SelectHallSensor), (24 bytes).
    Removing stm32f4xx_tim.o(i.TIM_SelectInputTrigger), (12 bytes).
    Removing stm32f4xx_tim.o(i.TIM_SelectMasterSlaveMode), (16 bytes).
    Removing stm32f4xx_tim.o(i.TIM_SelectOCxM), (80 bytes).
    Removing stm32f4xx_tim.o(i.TIM_SelectOnePulseMode), (16 bytes).
    Removing stm32f4xx_tim.o(i.TIM_SelectOutputTrigger), (16 bytes).
    Removing stm32f4xx_tim.o(i.TIM_SelectSlaveMode), (16 bytes).
    Removing stm32f4xx_tim.o(i.TIM_SetAutoreload), (4 bytes).
    Removing stm32f4xx_tim.o(i.TIM_SetClockDivision), (16 bytes).
    Removing stm32f4xx_tim.o(i.TIM_SetCompare1), (4 bytes).
    Removing stm32f4xx_tim.o(i.TIM_SetCompare2), (4 bytes).
    Removing stm32f4xx_tim.o(i.TIM_SetCompare3), (4 bytes).
    Removing stm32f4xx_tim.o(i.TIM_SetCompare4), (4 bytes).
    Removing stm32f4xx_tim.o(i.TIM_SetCounter), (4 bytes).
    Removing stm32f4xx_tim.o(i.TIM_SetIC1Prescaler), (16 bytes).
    Removing stm32f4xx_tim.o(i.TIM_SetIC2Prescaler), (24 bytes).
    Removing stm32f4xx_tim.o(i.TIM_SetIC3Prescaler), (16 bytes).
    Removing stm32f4xx_tim.o(i.TIM_SetIC4Prescaler), (24 bytes).
    Removing stm32f4xx_tim.o(i.TIM_TIxExternalClockConfig), (48 bytes).
    Removing stm32f4xx_tim.o(i.TIM_TimeBaseInit), (124 bytes).
    Removing stm32f4xx_tim.o(i.TIM_TimeBaseStructInit), (18 bytes).
    Removing stm32f4xx_tim.o(i.TIM_UpdateDisableConfig), (24 bytes).
    Removing stm32f4xx_tim.o(i.TIM_UpdateRequestConfig), (24 bytes).
    Removing stm32f4xx_usart.o(.rev16_text), (4 bytes).
    Removing stm32f4xx_usart.o(.revsh_text), (4 bytes).
    Removing stm32f4xx_usart.o(i.USART_ClearFlag), (8 bytes).
    Removing stm32f4xx_usart.o(i.USART_ClearITPendingBit), (16 bytes).
    Removing stm32f4xx_usart.o(i.USART_ClockInit), (28 bytes).
    Removing stm32f4xx_usart.o(i.USART_ClockStructInit), (12 bytes).
    Removing stm32f4xx_usart.o(i.USART_DMACmd), (20 bytes).
    Removing stm32f4xx_usart.o(i.USART_DeInit), (256 bytes).
    Removing stm32f4xx_usart.o(i.USART_HalfDuplexCmd), (24 bytes).
    Removing stm32f4xx_usart.o(i.USART_IrDACmd), (24 bytes).
    Removing stm32f4xx_usart.o(i.USART_IrDAConfig), (16 bytes).
    Removing stm32f4xx_usart.o(i.USART_LINBreakDetectLengthConfig), (16 bytes).
    Removing stm32f4xx_usart.o(i.USART_LINCmd), (24 bytes).
    Removing stm32f4xx_usart.o(i.USART_OneBitMethodCmd), (24 bytes).
    Removing stm32f4xx_usart.o(i.USART_OverSampling8Cmd), (24 bytes).
    Removing stm32f4xx_usart.o(i.USART_ReceiverWakeUpCmd), (24 bytes).
    Removing stm32f4xx_usart.o(i.USART_SendBreak), (10 bytes).
    Removing stm32f4xx_usart.o(i.USART_SetAddress), (16 bytes).
    Removing stm32f4xx_usart.o(i.USART_SetGuardTime), (16 bytes).
    Removing stm32f4xx_usart.o(i.USART_SetPrescaler), (16 bytes).
    Removing stm32f4xx_usart.o(i.USART_SmartCardCmd), (24 bytes).
    Removing stm32f4xx_usart.o(i.USART_SmartCardNACKCmd), (24 bytes).
    Removing stm32f4xx_usart.o(i.USART_StructInit), (22 bytes).
    Removing stm32f4xx_usart.o(i.USART_WakeUpConfig), (16 bytes).
    Removing stm32f4xx_wwdg.o(.rev16_text), (4 bytes).
    Removing stm32f4xx_wwdg.o(.revsh_text), (4 bytes).
    Removing stm32f4xx_wwdg.o(i.WWDG_Enable), (16 bytes).
    Removing stm32f4xx_wwdg.o(i.WWDG_EnableIT), (12 bytes).
    Removing stm32f4xx_wwdg.o(i.WWDG_GetFlagStatus), (20 bytes).
    Removing stm32f4xx_wwdg.o(i.WWDG_SetPrescaler), (20 bytes).
    Removing stm32f4xx_wwdg.o(i.WWDG_SetWindowValue), (32 bytes).
    Removing stm32f4xx_sdio.o(.rev16_text), (4 bytes).
    Removing stm32f4xx_sdio.o(.revsh_text), (4 bytes).
    Removing stm32f4xx_sdio.o(i.SDIO_CEATAITCmd), (16 bytes).
    Removing stm32f4xx_sdio.o(i.SDIO_ClearITPendingBit), (12 bytes).
    Removing stm32f4xx_sdio.o(i.SDIO_ClockCmd), (12 bytes).
    Removing stm32f4xx_sdio.o(i.SDIO_CmdStructInit), (14 bytes).
    Removing stm32f4xx_sdio.o(i.SDIO_CommandCompletionCmd), (12 bytes).
    Removing stm32f4xx_sdio.o(i.SDIO_DMACmd), (12 bytes).
    Removing stm32f4xx_sdio.o(i.SDIO_DataConfig), (48 bytes).
    Removing stm32f4xx_sdio.o(i.SDIO_DataStructInit), (20 bytes).
    Removing stm32f4xx_sdio.o(i.SDIO_DeInit), (24 bytes).
    Removing stm32f4xx_sdio.o(i.SDIO_GetCommandResponse), (12 bytes).
    Removing stm32f4xx_sdio.o(i.SDIO_GetDataCounter), (12 bytes).
    Removing stm32f4xx_sdio.o(i.SDIO_GetFIFOCount), (12 bytes).
    Removing stm32f4xx_sdio.o(i.SDIO_GetITStatus), (20 bytes).
    Removing stm32f4xx_sdio.o(i.SDIO_GetPowerState), (16 bytes).
    Removing stm32f4xx_sdio.o(i.SDIO_GetResponse), (20 bytes).
    Removing stm32f4xx_sdio.o(i.SDIO_ITConfig), (28 bytes).
    Removing stm32f4xx_sdio.o(i.SDIO_Init), (44 bytes).
    Removing stm32f4xx_sdio.o(i.SDIO_ReadData), (12 bytes).
    Removing stm32f4xx_sdio.o(i.SDIO_SendCEATACmd), (12 bytes).
    Removing stm32f4xx_sdio.o(i.SDIO_SendSDIOSuspendCmd), (12 bytes).
    Removing stm32f4xx_sdio.o(i.SDIO_SetPowerState), (12 bytes).
    Removing stm32f4xx_sdio.o(i.SDIO_SetSDIOOperation), (12 bytes).
    Removing stm32f4xx_sdio.o(i.SDIO_SetSDIOReadWaitMode), (12 bytes).
    Removing stm32f4xx_sdio.o(i.SDIO_StartSDIOReadWait), (12 bytes).
    Removing stm32f4xx_sdio.o(i.SDIO_StopSDIOReadWait), (12 bytes).
    Removing stm32f4xx_sdio.o(i.SDIO_StructInit), (16 bytes).
    Removing stm32f4xx_sdio.o(i.SDIO_WriteData), (12 bytes).
    Removing clk_timer.o(.rev16_text), (4 bytes).
    Removing clk_timer.o(.revsh_text), (4 bytes).
    Removing clk_timer.o(i.delete_task), (124 bytes).
    Removing clk_timer.o(i.delete_task_head), (80 bytes).
    Removing clk_timer.o(i.task_arg_init), (40 bytes).
    Removing gpio.o(.rev16_text), (4 bytes).
    Removing gpio.o(.revsh_text), (4 bytes).
    Removing gpio.o(i.change_EXTIX), (34 bytes).
    Removing gpio.o(i.check_keyboard_flag), (12 bytes).
    Removing gpio.o(i.clean_keyboard_flag), (16 bytes).
    Removing head.o(i.head_test), (312 bytes).
    Removing rtc.o(.rev16_text), (4 bytes).
    Removing rtc.o(.revsh_text), (4 bytes).
    Removing rtc.o(i.RTC_Set_AlarmA), (152 bytes).
    Removing rtc.o(i.RTC_Set_WakeUp), (106 bytes).
    Removing rtc.o(i.RTC_TEST), (26 bytes).
    Removing rtc.o(i.set_time), (32 bytes).
    Removing spi.o(.rev16_text), (4 bytes).
    Removing spi.o(.revsh_text), (4 bytes).
    Removing sys.o(.rev16_text), (4 bytes).
    Removing sys.o(.revsh_text), (4 bytes).
    Removing sys.o(.emb_text), (16 bytes).
    Removing sys.o(i.MYDMA_Config), (120 bytes).
    Removing sys.o(i.MYDMA_Enable), (132 bytes).
    Removing sys.o(i.RNG_Get_RandomNum), (20 bytes).
    Removing sys.o(i.Sys_Enter_Standby), (88 bytes).
    Removing sys.o(i.rng_test), (144 bytes).
    Removing usart.o(.rev16_text), (4 bytes).
    Removing usart.o(.revsh_text), (4 bytes).
    Removing usart.o(i._ttywrch), (2 bytes).
    Removing usart.o(i.get_uart1_buf), (8 bytes).
    Removing wwdg.o(.rev16_text), (4 bytes).
    Removing wwdg.o(.revsh_text), (4 bytes).
    Removing wwdg.o(i.WWDG_Init), (76 bytes).
    Removing wwdg.o(.data), (1 bytes).
    Removing sdio_sdcard.o(.rev16_text), (4 bytes).
    Removing sdio_sdcard.o(.revsh_text), (4 bytes).
    Removing sdio_sdcard.o(i.CmdError), (42 bytes).
    Removing sdio_sdcard.o(i.CmdResp2Error), (76 bytes).
    Removing sdio_sdcard.o(i.CmdResp3Error), (48 bytes).
    Removing sdio_sdcard.o(i.CmdResp6Error), (128 bytes).
    Removing sdio_sdcard.o(i.CmdResp7Error), (64 bytes).
    Removing sdio_sdcard.o(i.FindSCR), (388 bytes).
    Removing sdio_sdcard.o(i.IsCardProgramming), (152 bytes).
    Removing sdio_sdcard.o(i.SDEnWideBus), (140 bytes).
    Removing sdio_sdcard.o(i.SDIO_Clock_Set), (20 bytes).
    Removing sdio_sdcard.o(i.SDIO_Register_Deinit), (56 bytes).
    Removing sdio_sdcard.o(i.SD_DMA_Config), (120 bytes).
    Removing sdio_sdcard.o(i.SD_EnableWideBusOperation), (80 bytes).
    Removing sdio_sdcard.o(i.SD_GetCardInfo), (544 bytes).
    Removing sdio_sdcard.o(i.SD_GetState), (26 bytes).
    Removing sdio_sdcard.o(i.SD_Init), (276 bytes).
    Removing sdio_sdcard.o(i.SD_InitializeCards), (300 bytes).
    Removing sdio_sdcard.o(i.SD_PowerOFF), (12 bytes).
    Removing sdio_sdcard.o(i.SD_PowerON), (420 bytes).
    Removing sdio_sdcard.o(i.SD_ReadBlock), (592 bytes).
    Removing sdio_sdcard.o(i.SD_ReadDisk), (132 bytes).
    Removing sdio_sdcard.o(i.SD_ReadMultiBlocks), (688 bytes).
    Removing sdio_sdcard.o(i.SD_SelectDeselect), (44 bytes).
    Removing sdio_sdcard.o(i.SD_SendStatus), (76 bytes).
    Removing sdio_sdcard.o(i.SD_SetDeviceMode), (24 bytes).
    Removing sdio_sdcard.o(i.SD_WriteBlock), (784 bytes).
    Removing sdio_sdcard.o(i.SD_WriteDisk), (120 bytes).
    Removing sdio_sdcard.o(i.SD_WriteMultiBlocks), (804 bytes).
    Removing sdio_sdcard.o(i.convert_from_bytes_to_power_of_two), (18 bytes).
    Removing sdio_sdcard.o(i.sd_cart_test), (424 bytes).
    Removing cti2c.o(.rev16_text), (4 bytes).
    Removing cti2c.o(.revsh_text), (4 bytes).
    Removing cti2c.o(i.CT_Delay), (6 bytes).
    Removing cti2c.o(i.CT_IIC_Ack), (84 bytes).
    Removing cti2c.o(i.CT_IIC_Init), (40 bytes).
    Removing cti2c.o(i.CT_IIC_NAck), (84 bytes).
    Removing cti2c.o(i.CT_IIC_Read_Byte), (112 bytes).
    Removing cti2c.o(i.CT_IIC_Send_Byte), (108 bytes).
    Removing cti2c.o(i.CT_IIC_Start), (84 bytes).
    Removing cti2c.o(i.CT_IIC_Stop), (72 bytes).
    Removing cti2c.o(i.CT_IIC_Wait_Ack), (100 bytes).
    Removing keyboard_driver.o(.rev16_text), (4 bytes).
    Removing keyboard_driver.o(.revsh_text), (4 bytes).
    Removing keyboard_driver.o(i.key_polling), (2 bytes).
    Removing led_driver.o(.rev16_text), (4 bytes).
    Removing led_driver.o(.revsh_text), (4 bytes).
    Removing led_driver.o(i.led_service), (22 bytes).
    Removing mon.o(.rev16_text), (4 bytes).
    Removing mon.o(.revsh_text), (4 bytes).
    Removing mon.o(i.set_mon_flag), (12 bytes).
    Removing rng_driver.o(i.RNG_Get_RandomRange), (26 bytes).
    Removing rng_driver.o(i.get_random_number), (4 bytes).
    Removing sys_driver.o(.rev16_text), (4 bytes).
    Removing sys_driver.o(.revsh_text), (4 bytes).
    Removing sys_driver.o(i.enter_standby), (14 bytes).
    Removing w25q16.o(.rev16_text), (4 bytes).
    Removing w25q16.o(.revsh_text), (4 bytes).
    Removing w25q16.o(i.W25QXX_Erase_Chip), (52 bytes).
    Removing w25q16.o(i.W25QXX_Erase_Sector), (76 bytes).
    Removing w25q16.o(i.W25QXX_PowerDown), (44 bytes).
    Removing w25q16.o(i.W25QXX_Read), (88 bytes).
    Removing w25q16.o(i.W25QXX_ReadSR), (48 bytes).
    Removing w25q16.o(i.W25QXX_WAKEUP), (44 bytes).
    Removing w25q16.o(i.W25QXX_Wait_Busy), (12 bytes).
    Removing w25q16.o(i.W25QXX_Write), (164 bytes).
    Removing w25q16.o(i.W25QXX_Write_Disable), (40 bytes).
    Removing w25q16.o(i.W25QXX_Write_Enable), (40 bytes).
    Removing w25q16.o(i.W25QXX_Write_NoCheck), (62 bytes).
    Removing w25q16.o(i.W25QXX_Write_Page), (96 bytes).
    Removing w25q16.o(i.W25QXX_Write_SR), (48 bytes).
    Removing w25q16.o(.bss), (4096 bytes).
    Removing cc936.o(i.ff_convert), (88 bytes).
    Removing cc936.o(i.ff_wtoupper), (44 bytes).
    Removing cc936.o(.constdata), (175304 bytes).
    Removing ff.o(i.check_fs), (124 bytes).
    Removing ff.o(i.chk_chr), (16 bytes).
    Removing ff.o(i.clmt_clust), (38 bytes).
    Removing ff.o(i.clust2sect), (24 bytes).
    Removing ff.o(i.cmp_lfn), (128 bytes).
    Removing ff.o(i.create_chain), (168 bytes).
    Removing ff.o(i.create_name), (560 bytes).
    Removing ff.o(i.dir_alloc), (68 bytes).
    Removing ff.o(i.dir_find), (198 bytes).
    Removing ff.o(i.dir_next), (258 bytes).
    Removing ff.o(i.dir_read), (176 bytes).
    Removing ff.o(i.dir_register), (260 bytes).
    Removing ff.o(i.dir_remove), (94 bytes).
    Removing ff.o(i.dir_sdi), (140 bytes).
    Removing ff.o(i.f_chmod), (106 bytes).
    Removing ff.o(i.f_close), (30 bytes).
    Removing ff.o(i.f_closedir), (20 bytes).
    Removing ff.o(i.f_getfree), (222 bytes).
    Removing ff.o(i.f_getlabel), (166 bytes).
    Removing ff.o(i.f_gets), (68 bytes).
    Removing ff.o(i.f_lseek), (586 bytes).
    Removing ff.o(i.f_mkdir), (374 bytes).
    Removing ff.o(i.f_mkfs), (1324 bytes).
    Removing ff.o(i.f_mount), (76 bytes).
    Removing ff.o(i.f_open), (372 bytes).
    Removing ff.o(i.f_opendir), (134 bytes).
    Removing ff.o(i.f_printf), (550 bytes).
    Removing ff.o(i.f_putc), (60 bytes).
    Removing ff.o(i.f_puts), (70 bytes).
    Removing ff.o(i.f_read), (370 bytes).
    Removing ff.o(i.f_readdir), (122 bytes).
    Removing ff.o(i.f_rename), (298 bytes).
    Removing ff.o(i.f_setlabel), (412 bytes).
    Removing ff.o(i.f_stat), (86 bytes).
    Removing ff.o(i.f_sync), (154 bytes).
    Removing ff.o(i.f_truncate), (178 bytes).
    Removing ff.o(i.f_unlink), (192 bytes).
    Removing ff.o(i.f_utime), (110 bytes).
    Removing ff.o(i.f_write), (434 bytes).
    Removing ff.o(i.find_volume), (788 bytes).
    Removing ff.o(i.fit_lfn), (108 bytes).
    Removing ff.o(i.follow_path), (106 bytes).
    Removing ff.o(i.gen_numname), (152 bytes).
    Removing ff.o(i.get_fat), (204 bytes).
    Removing ff.o(i.get_fileinfo), (224 bytes).
    Removing ff.o(i.get_ldnumber), (66 bytes).
    Removing ff.o(i.ld_clust), (30 bytes).
    Removing ff.o(i.mem_cmp), (26 bytes).
    Removing ff.o(i.mem_cpy), (18 bytes).
    Removing ff.o(i.mem_set), (16 bytes).
    Removing ff.o(i.move_window), (50 bytes).
    Removing ff.o(i.pick_lfn), (112 bytes).
    Removing ff.o(i.put_fat), (246 bytes).
    Removing ff.o(i.putc_bfd), (58 bytes).
    Removing ff.o(i.remove_chain), (102 bytes).
    Removing ff.o(i.st_clust), (16 bytes).
    Removing ff.o(i.sum_sfn), (26 bytes).
    Removing ff.o(i.sync_fs), (180 bytes).
    Removing ff.o(i.sync_window), (82 bytes).
    Removing ff.o(i.validate), (44 bytes).
    Removing ff.o(.bss), (12 bytes).
    Removing ff.o(.constdata), (58 bytes).
    Removing ff.o(.data), (2 bytes).
    Removing diskio.o(.rev16_text), (4 bytes).
    Removing diskio.o(.revsh_text), (4 bytes).
    Removing diskio.o(i.disk_initialize), (38 bytes).
    Removing diskio.o(i.disk_ioctl), (124 bytes).
    Removing diskio.o(i.disk_read), (100 bytes).
    Removing diskio.o(i.disk_status), (4 bytes).
    Removing diskio.o(i.disk_write), (100 bytes).
    Removing diskio.o(i.ff_memalloc), (4 bytes).
    Removing diskio.o(i.ff_memfree), (4 bytes).
    Removing diskio.o(i.get_fattime), (4 bytes).
    Removing my_fs.o(i.fs_test), (264 bytes).
    Removing my_fs.o(i.mf_getlabel), (104 bytes).
    Removing my_fs.o(i.mf_scan_files), (104 bytes).
    Removing my_fs.o(.bss), (1124 bytes).
    Removing my_fs.o(.data), (13 bytes).
    Removing lcd.o(.rev16_text), (4 bytes).
    Removing lcd.o(.revsh_text), (4 bytes).
    Removing lcd.o(i.LCD_BGR2RGB), (18 bytes).
    Removing lcd.o(i.LCD_Color_Fill), (88 bytes).
    Removing lcd.o(i.LCD_DisplayOff), (8 bytes).
    Removing lcd.o(i.LCD_DisplayOn), (8 bytes).
    Removing lcd.o(i.LCD_DrawLine), (152 bytes).
    Removing lcd.o(i.LCD_DrawPoint), (28 bytes).
    Removing lcd.o(i.LCD_DrawRectangle), (62 bytes).
    Removing lcd.o(i.LCD_Draw_Circle), (180 bytes).
    Removing lcd.o(i.LCD_Pow), (16 bytes).
    Removing lcd.o(i.LCD_ReadPoint), (120 bytes).
    Removing lcd.o(i.LCD_SSD_BackLightSet), (80 bytes).
    Removing lcd.o(i.LCD_Set_Window), (148 bytes).
    Removing lcd.o(i.LCD_ShowNum), (124 bytes).
    Removing lcd.o(i.LCD_ShowxNum), (156 bytes).
    Removing lcd.o(i.LCD_WriteRAM), (12 bytes).
    Removing lcd.o(i.opt_delay), (8 bytes).
    Removing flash_service_if.o(i.flash_rw_service), (38 bytes).
    Removing led_service.o(i.LED_switch_service), (34 bytes).
    Removing rtc_service_if.o(i.rtc_time_service), (30 bytes).
    Removing service.o(i.Service_init), (32 bytes).
    Removing service.o(i.submit_service), (76 bytes).
    Removing service.o(.bss), (12 bytes).
    Removing flash_service.o(i.flash_service), (40 bytes).
    Removing rtc_service.o(i.rtc_service), (32 bytes).
    Removing homeview.o(.rev16_text), (4 bytes).
    Removing homeview.o(.revsh_text), (4 bytes).
    Removing popout.o(.rev16_text), (4 bytes).
    Removing popout.o(.revsh_text), (4 bytes).
    Removing setupview.o(.rev16_text), (4 bytes).
    Removing setupview.o(.revsh_text), (4 bytes).
    Removing view.o(.rev16_text), (4 bytes).
    Removing view.o(.revsh_text), (4 bytes).
    Removing view.o(i.App_call_back), (16 bytes).
    Removing view.o(i.set_call_back), (12 bytes).

586 unused section(s) (total 215496 bytes) removed from the image.

==============================================================================

Image Symbol Table

    Local Symbols

    Symbol Name                              Value     Ov Type        Size  Object(Section)

    ../clib/angel/boardlib.s                 0x00000000   Number         0  boardshut.o ABSOLUTE
    ../clib/angel/boardlib.s                 0x00000000   Number         0  boardinit3.o ABSOLUTE
    ../clib/angel/boardlib.s                 0x00000000   Number         0  boardinit2.o ABSOLUTE
    ../clib/angel/boardlib.s                 0x00000000   Number         0  boardinit1.o ABSOLUTE
    ../clib/angel/dczerorl2.s                0x00000000   Number         0  __dczerorl2.o ABSOLUTE
    ../clib/angel/handlers.s                 0x00000000   Number         0  __scatter_zi.o ABSOLUTE
    ../clib/angel/kernel.s                   0x00000000   Number         0  __rtentry4.o ABSOLUTE
    ../clib/angel/kernel.s                   0x00000000   Number         0  __rtentry.o ABSOLUTE
    ../clib/angel/kernel.s                   0x00000000   Number         0  rtexit2.o ABSOLUTE
    ../clib/angel/kernel.s                   0x00000000   Number         0  __rtentry2.o ABSOLUTE
    ../clib/angel/kernel.s                   0x00000000   Number         0  rtexit.o ABSOLUTE
    ../clib/angel/rt.s                       0x00000000   Number         0  aeabi_ldiv0_sigfpe.o ABSOLUTE
    ../clib/angel/rt.s                       0x00000000   Number         0  aeabi_ldiv0.o ABSOLUTE
    ../clib/angel/rt.s                       0x00000000   Number         0  rt_div0.o ABSOLUTE
    ../clib/angel/rt.s                       0x00000000   Number         0  rt_raise.o ABSOLUTE
    ../clib/angel/scatter.s                  0x00000000   Number         0  __scatter.o ABSOLUTE
    ../clib/angel/startup.s                  0x00000000   Number         0  __main.o ABSOLUTE
    ../clib/angel/sys.s                      0x00000000   Number         0  indicate_semi.o ABSOLUTE
    ../clib/angel/sys.s                      0x00000000   Number         0  use_no_semi_2.o ABSOLUTE
    ../clib/angel/sys.s                      0x00000000   Number         0  use_no_semi.o ABSOLUTE
    ../clib/angel/sys.s                      0x00000000   Number         0  libspace.o ABSOLUTE
    ../clib/angel/sys.s                      0x00000000   Number         0  sys_stackheap_outer.o ABSOLUTE
    ../clib/angel/sysapp.c                   0x00000000   Number         0  sys_command.o ABSOLUTE
    ../clib/armsys.c                         0x00000000   Number         0  argv_veneer.o ABSOLUTE
    ../clib/armsys.c                         0x00000000   Number         0  argv_veneer.o ABSOLUTE
    ../clib/armsys.c                         0x00000000   Number         0  no_argv.o ABSOLUTE
    ../clib/armsys.c                         0x00000000   Number         0  _get_argv_nomalloc.o ABSOLUTE
    ../clib/heapalloc.c                      0x00000000   Number         0  hrguard.o ABSOLUTE
    ../clib/heapaux.c                        0x00000000   Number         0  heapauxi.o ABSOLUTE
    ../clib/libinit.s                        0x00000000   Number         0  libinit.o ABSOLUTE
    ../clib/libinit.s                        0x00000000   Number         0  libshutdown2.o ABSOLUTE
    ../clib/libinit.s                        0x00000000   Number         0  libinit2.o ABSOLUTE
    ../clib/libinit.s                        0x00000000   Number         0  libshutdown.o ABSOLUTE
    ../clib/longlong.s                       0x00000000   Number         0  llsdiv.o ABSOLUTE
    ../clib/longlong.s                       0x00000000   Number         0  lludivv7m.o ABSOLUTE
    ../clib/memcpset.s                       0x00000000   Number         0  rt_memclr_w.o ABSOLUTE
    ../clib/memcpset.s                       0x00000000   Number         0  aeabi_memset.o ABSOLUTE
    ../clib/memcpset.s                       0x00000000   Number         0  rt_memcpy_w.o ABSOLUTE
    ../clib/memcpset.s                       0x00000000   Number         0  rt_memclr.o ABSOLUTE
    ../clib/memcpset.s                       0x00000000   Number         0  rt_memcpy_v6.o ABSOLUTE
    ../clib/printf.c                         0x00000000   Number         0  __printf_flags_ss_wp.o ABSOLUTE
    ../clib/printf.c                         0x00000000   Number         0  __printf_ss_wp.o ABSOLUTE
    ../clib/printf.c                         0x00000000   Number         0  _printf_intcommon.o ABSOLUTE
    ../clib/printf.c                         0x00000000   Number         0  _printf_dec.o ABSOLUTE
    ../clib/printf.c                         0x00000000   Number         0  _printf_char_common.o ABSOLUTE
    ../clib/printf.c                         0x00000000   Number         0  _printf_str.o ABSOLUTE
    ../clib/printf.c                         0x00000000   Number         0  __printf.o ABSOLUTE
    ../clib/printf.c                         0x00000000   Number         0  _printf_char_file.o ABSOLUTE
    ../clib/printf.c                         0x00000000   Number         0  _printf_char.o ABSOLUTE
    ../clib/printf.c                         0x00000000   Number         0  _printf_hex_ll.o ABSOLUTE
    ../clib/printf.c                         0x00000000   Number         0  _printf_hex_int.o ABSOLUTE
    ../clib/printf.c                         0x00000000   Number         0  _printf_hex_int_ll.o ABSOLUTE
    ../clib/printf.c                         0x00000000   Number         0  __printf_nopercent.o ABSOLUTE
    ../clib/printf.c                         0x00000000   Number         0  _printf_hex_ptr.o ABSOLUTE
    ../clib/printf.c                         0x00000000   Number         0  _printf_hex_int_ptr.o ABSOLUTE
    ../clib/printf.c                         0x00000000   Number         0  _printf_hex_ll_ptr.o ABSOLUTE
    ../clib/printf.c                         0x00000000   Number         0  _printf_hex_int_ll_ptr.o ABSOLUTE
    ../clib/printf.c                         0x00000000   Number         0  __printf_flags.o ABSOLUTE
    ../clib/printf.c                         0x00000000   Number         0  __printf_ss.o ABSOLUTE
    ../clib/printf.c                         0x00000000   Number         0  __printf_flags_ss.o ABSOLUTE
    ../clib/printf.c                         0x00000000   Number         0  noretval__2printf.o ABSOLUTE
    ../clib/printf.c                         0x00000000   Number         0  __printf_wp.o ABSOLUTE
    ../clib/printf.c                         0x00000000   Number         0  __2printf.o ABSOLUTE
    ../clib/printf.c                         0x00000000   Number         0  __printf_flags_wp.o ABSOLUTE
    ../clib/printf_percent.s                 0x00000000   Number         0  _printf_s.o ABSOLUTE
    ../clib/printf_percent.s                 0x00000000   Number         0  _printf_x.o ABSOLUTE
    ../clib/printf_percent.s                 0x00000000   Number         0  _printf_percent.o ABSOLUTE
    ../clib/printf_percent.s                 0x00000000   Number         0  _printf_u.o ABSOLUTE
    ../clib/printf_percent.s                 0x00000000   Number         0  _printf_d.o ABSOLUTE
    ../clib/printf_percent.s                 0x00000000   Number         0  _printf_percent_end.o ABSOLUTE
    ../clib/signal.c                         0x00000000   Number         0  defsig_rtmem_inner.o ABSOLUTE
    ../clib/signal.c                         0x00000000   Number         0  defsig_stak_inner.o ABSOLUTE
    ../clib/signal.c                         0x00000000   Number         0  defsig_pvfn_inner.o ABSOLUTE
    ../clib/signal.c                         0x00000000   Number         0  defsig_cppl_inner.o ABSOLUTE
    ../clib/signal.c                         0x00000000   Number         0  defsig_segv_inner.o ABSOLUTE
    ../clib/signal.c                         0x00000000   Number         0  defsig_other.o ABSOLUTE
    ../clib/signal.c                         0x00000000   Number         0  defsig_rtmem_formal.o ABSOLUTE
    ../clib/signal.c                         0x00000000   Number         0  defsig_rtmem_outer.o ABSOLUTE
    ../clib/signal.c                         0x00000000   Number         0  __raise.o ABSOLUTE
    ../clib/signal.c                         0x00000000   Number         0  defsig_fpe_inner.o ABSOLUTE
    ../clib/signal.c                         0x00000000   Number         0  defsig_exit.o ABSOLUTE
    ../clib/signal.c                         0x00000000   Number         0  defsig_general.o ABSOLUTE
    ../clib/signal.c                         0x00000000   Number         0  defsig_fpe_outer.o ABSOLUTE
    ../clib/signal.c                         0x00000000   Number         0  defsig_fpe_formal.o ABSOLUTE
    ../clib/signal.c                         0x00000000   Number         0  defsig_abrt_inner.o ABSOLUTE
    ../clib/signal.c                         0x00000000   Number         0  defsig_rtred_inner.o ABSOLUTE
    ../clib/signal.s                         0x00000000   Number         0  defsig.o ABSOLUTE
    ../clib/stdio.c                          0x00000000   Number         0  ferror.o ABSOLUTE
    ../clib/stdio.c                          0x00000000   Number         0  ferror_locked.o ABSOLUTE
    ../clib/stdlib.c                         0x00000000   Number         0  exit.o ABSOLUTE
    ../clib/string.c                         0x00000000   Number         0  strncmp.o ABSOLUTE
    ../clib/string.c                         0x00000000   Number         0  strlen.o ABSOLUTE
    ../fplib/dfixu.s                         0x00000000   Number         0  dfixu.o ABSOLUTE
    ../fplib/dflt.s                          0x00000000   Number         0  dflt_clz.o ABSOLUTE
    ../fplib/dmul.s                          0x00000000   Number         0  dmul.o ABSOLUTE
    ../fplib/dnaninf.s                       0x00000000   Number         0  dnaninf.o ABSOLUTE
    ../fplib/dretinf.s                       0x00000000   Number         0  dretinf.o ABSOLUTE
    ../fplib/fpinit.s                        0x00000000   Number         0  fpinit.o ABSOLUTE
    ../fplib/usenofp.s                       0x00000000   Number         0  usenofp.o ABSOLUTE
    ..\CORE\startup_stm32f40_41xxx.s         0x00000000   Number         0  startup_stm32f40_41xxx.o ABSOLUTE
    ..\DRIVER\FATFS\exfuns\my_fs.c           0x00000000   Number         0  my_fs.o ABSOLUTE
    ..\DRIVER\FATFS\src\diskio.c             0x00000000   Number         0  diskio.o ABSOLUTE
    ..\DRIVER\FATFS\src\ff.c                 0x00000000   Number         0  ff.o ABSOLUTE
    ..\DRIVER\FATFS\src\option\cc936.c       0x00000000   Number         0  cc936.o ABSOLUTE
    ..\DRIVER\flash_service.c                0x00000000   Number         0  flash_service.o ABSOLUTE
    ..\DRIVER\keyboard_driver.c              0x00000000   Number         0  keyboard_driver.o ABSOLUTE
    ..\DRIVER\lcd.c                          0x00000000   Number         0  lcd.o ABSOLUTE
    ..\DRIVER\led_driver.c                   0x00000000   Number         0  led_driver.o ABSOLUTE
    ..\DRIVER\mon.c                          0x00000000   Number         0  mon.o ABSOLUTE
    ..\DRIVER\rng_driver.c                   0x00000000   Number         0  rng_driver.o ABSOLUTE
    ..\DRIVER\rtc_service.c                  0x00000000   Number         0  rtc_service.o ABSOLUTE
    ..\DRIVER\sys_driver.c                   0x00000000   Number         0  sys_driver.o ABSOLUTE
    ..\DRIVER\w25q16.c                       0x00000000   Number         0  w25q16.o ABSOLUTE
    ..\FWLIB\src\misc.c                      0x00000000   Number         0  misc.o ABSOLUTE
    ..\FWLIB\src\stm32f4xx_dma.c             0x00000000   Number         0  stm32f4xx_dma.o ABSOLUTE
    ..\FWLIB\src\stm32f4xx_exti.c            0x00000000   Number         0  stm32f4xx_exti.o ABSOLUTE
    ..\FWLIB\src\stm32f4xx_fsmc.c            0x00000000   Number         0  stm32f4xx_fsmc.o ABSOLUTE
    ..\FWLIB\src\stm32f4xx_gpio.c            0x00000000   Number         0  stm32f4xx_gpio.o ABSOLUTE
    ..\FWLIB\src\stm32f4xx_pwr.c             0x00000000   Number         0  stm32f4xx_pwr.o ABSOLUTE
    ..\FWLIB\src\stm32f4xx_rcc.c             0x00000000   Number         0  stm32f4xx_rcc.o ABSOLUTE
    ..\FWLIB\src\stm32f4xx_rng.c             0x00000000   Number         0  stm32f4xx_rng.o ABSOLUTE
    ..\FWLIB\src\stm32f4xx_rtc.c             0x00000000   Number         0  stm32f4xx_rtc.o ABSOLUTE
    ..\FWLIB\src\stm32f4xx_sdio.c            0x00000000   Number         0  stm32f4xx_sdio.o ABSOLUTE
    ..\FWLIB\src\stm32f4xx_spi.c             0x00000000   Number         0  stm32f4xx_spi.o ABSOLUTE
    ..\FWLIB\src\stm32f4xx_syscfg.c          0x00000000   Number         0  stm32f4xx_syscfg.o ABSOLUTE
    ..\FWLIB\src\stm32f4xx_tim.c             0x00000000   Number         0  stm32f4xx_tim.o ABSOLUTE
    ..\FWLIB\src\stm32f4xx_usart.c           0x00000000   Number         0  stm32f4xx_usart.o ABSOLUTE
    ..\FWLIB\src\stm32f4xx_wwdg.c            0x00000000   Number         0  stm32f4xx_wwdg.o ABSOLUTE
    ..\GUI\homeview.c                        0x00000000   Number         0  homeview.o ABSOLUTE
    ..\GUI\popout.c                          0x00000000   Number         0  popout.o ABSOLUTE
    ..\GUI\setupview.c                       0x00000000   Number         0  setupview.o ABSOLUTE
    ..\GUI\view.c                            0x00000000   Number         0  view.o ABSOLUTE
    ..\HARDWARE\clk_timer.c                  0x00000000   Number         0  clk_timer.o ABSOLUTE
    ..\HARDWARE\cti2c.c                      0x00000000   Number         0  cti2c.o ABSOLUTE
    ..\HARDWARE\gpio.c                       0x00000000   Number         0  gpio.o ABSOLUTE
    ..\HARDWARE\head.c                       0x00000000   Number         0  head.o ABSOLUTE
    ..\HARDWARE\rtc.c                        0x00000000   Number         0  rtc.o ABSOLUTE
    ..\HARDWARE\sdio_sdcard.c                0x00000000   Number         0  sdio_sdcard.o ABSOLUTE
    ..\HARDWARE\spi.c                        0x00000000   Number         0  spi.o ABSOLUTE
    ..\HARDWARE\sys.c                        0x00000000   Number         0  sys.o ABSOLUTE
    ..\HARDWARE\usart.c                      0x00000000   Number         0  usart.o ABSOLUTE
    ..\HARDWARE\wwdg.c                       0x00000000   Number         0  wwdg.o ABSOLUTE
    ..\SERVICE\LED_service.c                 0x00000000   Number         0  led_service.o ABSOLUTE
    ..\SERVICE\flash_service_if.c            0x00000000   Number         0  flash_service_if.o ABSOLUTE
    ..\SERVICE\rtc_service_if.c              0x00000000   Number         0  rtc_service_if.o ABSOLUTE
    ..\SERVICE\service.c                     0x00000000   Number         0  service.o ABSOLUTE
    ..\\DRIVER\\FATFS\\src\\diskio.c         0x00000000   Number         0  diskio.o ABSOLUTE
    ..\\DRIVER\\keyboard_driver.c            0x00000000   Number         0  keyboard_driver.o ABSOLUTE
    ..\\DRIVER\\lcd.c                        0x00000000   Number         0  lcd.o ABSOLUTE
    ..\\DRIVER\\led_driver.c                 0x00000000   Number         0  led_driver.o ABSOLUTE
    ..\\DRIVER\\mon.c                        0x00000000   Number         0  mon.o ABSOLUTE
    ..\\DRIVER\\sys_driver.c                 0x00000000   Number         0  sys_driver.o ABSOLUTE
    ..\\DRIVER\\w25q16.c                     0x00000000   Number         0  w25q16.o ABSOLUTE
    ..\\FWLIB\\src\\misc.c                   0x00000000   Number         0  misc.o ABSOLUTE
    ..\\FWLIB\\src\\stm32f4xx_dma.c          0x00000000   Number         0  stm32f4xx_dma.o ABSOLUTE
    ..\\FWLIB\\src\\stm32f4xx_exti.c         0x00000000   Number         0  stm32f4xx_exti.o ABSOLUTE
    ..\\FWLIB\\src\\stm32f4xx_fsmc.c         0x00000000   Number         0  stm32f4xx_fsmc.o ABSOLUTE
    ..\\FWLIB\\src\\stm32f4xx_gpio.c         0x00000000   Number         0  stm32f4xx_gpio.o ABSOLUTE
    ..\\FWLIB\\src\\stm32f4xx_pwr.c          0x00000000   Number         0  stm32f4xx_pwr.o ABSOLUTE
    ..\\FWLIB\\src\\stm32f4xx_rcc.c          0x00000000   Number         0  stm32f4xx_rcc.o ABSOLUTE
    ..\\FWLIB\\src\\stm32f4xx_rng.c          0x00000000   Number         0  stm32f4xx_rng.o ABSOLUTE
    ..\\FWLIB\\src\\stm32f4xx_rtc.c          0x00000000   Number         0  stm32f4xx_rtc.o ABSOLUTE
    ..\\FWLIB\\src\\stm32f4xx_sdio.c         0x00000000   Number         0  stm32f4xx_sdio.o ABSOLUTE
    ..\\FWLIB\\src\\stm32f4xx_spi.c          0x00000000   Number         0  stm32f4xx_spi.o ABSOLUTE
    ..\\FWLIB\\src\\stm32f4xx_syscfg.c       0x00000000   Number         0  stm32f4xx_syscfg.o ABSOLUTE
    ..\\FWLIB\\src\\stm32f4xx_tim.c          0x00000000   Number         0  stm32f4xx_tim.o ABSOLUTE
    ..\\FWLIB\\src\\stm32f4xx_usart.c        0x00000000   Number         0  stm32f4xx_usart.o ABSOLUTE
    ..\\FWLIB\\src\\stm32f4xx_wwdg.c         0x00000000   Number         0  stm32f4xx_wwdg.o ABSOLUTE
    ..\\GUI\\homeview.c                      0x00000000   Number         0  homeview.o ABSOLUTE
    ..\\GUI\\popout.c                        0x00000000   Number         0  popout.o ABSOLUTE
    ..\\GUI\\setupview.c                     0x00000000   Number         0  setupview.o ABSOLUTE
    ..\\GUI\\view.c                          0x00000000   Number         0  view.o ABSOLUTE
    ..\\HARDWARE\\clk_timer.c                0x00000000   Number         0  clk_timer.o ABSOLUTE
    ..\\HARDWARE\\cti2c.c                    0x00000000   Number         0  cti2c.o ABSOLUTE
    ..\\HARDWARE\\gpio.c                     0x00000000   Number         0  gpio.o ABSOLUTE
    ..\\HARDWARE\\rtc.c                      0x00000000   Number         0  rtc.o ABSOLUTE
    ..\\HARDWARE\\sdio_sdcard.c              0x00000000   Number         0  sdio_sdcard.o ABSOLUTE
    ..\\HARDWARE\\spi.c                      0x00000000   Number         0  spi.o ABSOLUTE
    ..\\HARDWARE\\sys.c                      0x00000000   Number         0  sys.o ABSOLUTE
    ..\\HARDWARE\\usart.c                    0x00000000   Number         0  usart.o ABSOLUTE
    ..\\HARDWARE\\wwdg.c                     0x00000000   Number         0  wwdg.o ABSOLUTE
    dc.s                                     0x00000000   Number         0  dc.o ABSOLUTE
    main.c                                   0x00000000   Number         0  main.o ABSOLUTE
    main.c                                   0x00000000   Number         0  main.o ABSOLUTE
    stm32f4xx_it.c                           0x00000000   Number         0  stm32f4xx_it.o ABSOLUTE
    stm32f4xx_it.c                           0x00000000   Number         0  stm32f4xx_it.o ABSOLUTE
    system_stm32f4xx.c                       0x00000000   Number         0  system_stm32f4xx.o ABSOLUTE
    system_stm32f4xx.c                       0x00000000   Number         0  system_stm32f4xx.o ABSOLUTE
    RESET                                    0x08000000   Section      392  startup_stm32f40_41xxx.o(RESET)
    !!!main                                  0x08000188   Section        8  __main.o(!!!main)
    !!!scatter                               0x08000190   Section       52  __scatter.o(!!!scatter)
    !!dczerorl2                              0x080001c4   Section       90  __dczerorl2.o(!!dczerorl2)
    !!handler_zi                             0x08000220   Section       28  __scatter_zi.o(!!handler_zi)
    .ARM.Collect$$_printf_percent$$00000000  0x0800023c   Section        0  _printf_percent.o(.ARM.Collect$$_printf_percent$$00000000)
    .ARM.Collect$$_printf_percent$$00000009  0x0800023c   Section        6  _printf_d.o(.ARM.Collect$$_printf_percent$$00000009)
    .ARM.Collect$$_printf_percent$$0000000C  0x08000242   Section        6  _printf_x.o(.ARM.Collect$$_printf_percent$$0000000C)
    .ARM.Collect$$_printf_percent$$00000014  0x08000248   Section        6  _printf_s.o(.ARM.Collect$$_printf_percent$$00000014)
    .ARM.Collect$$_printf_percent$$00000017  0x0800024e   Section        4  _printf_percent_end.o(.ARM.Collect$$_printf_percent$$00000017)
    .ARM.Collect$$libinit$$00000000          0x08000252   Section        2  libinit.o(.ARM.Collect$$libinit$$00000000)
    .ARM.Collect$$libinit$$00000001          0x08000254   Section        4  libinit2.o(.ARM.Collect$$libinit$$00000001)
    .ARM.Collect$$libinit$$00000004          0x08000258   Section        0  libinit2.o(.ARM.Collect$$libinit$$00000004)
    .ARM.Collect$$libinit$$0000000A          0x08000258   Section        0  libinit2.o(.ARM.Collect$$libinit$$0000000A)
    .ARM.Collect$$libinit$$0000000C          0x08000258   Section        0  libinit2.o(.ARM.Collect$$libinit$$0000000C)
    .ARM.Collect$$libinit$$0000000E          0x08000258   Section        0  libinit2.o(.ARM.Collect$$libinit$$0000000E)
    .ARM.Collect$$libinit$$00000011          0x08000258   Section        0  libinit2.o(.ARM.Collect$$libinit$$00000011)
    .ARM.Collect$$libinit$$00000013          0x08000258   Section        0  libinit2.o(.ARM.Collect$$libinit$$00000013)
    .ARM.Collect$$libinit$$00000015          0x08000258   Section        0  libinit2.o(.ARM.Collect$$libinit$$00000015)
    .ARM.Collect$$libinit$$00000017          0x08000258   Section        0  libinit2.o(.ARM.Collect$$libinit$$00000017)
    .ARM.Collect$$libinit$$00000019          0x08000258   Section        0  libinit2.o(.ARM.Collect$$libinit$$00000019)
    .ARM.Collect$$libinit$$0000001B          0x08000258   Section        0  libinit2.o(.ARM.Collect$$libinit$$0000001B)
    .ARM.Collect$$libinit$$0000001D          0x08000258   Section        0  libinit2.o(.ARM.Collect$$libinit$$0000001D)
    .ARM.Collect$$libinit$$0000001F          0x08000258   Section        0  libinit2.o(.ARM.Collect$$libinit$$0000001F)
    .ARM.Collect$$libinit$$00000021          0x08000258   Section        0  libinit2.o(.ARM.Collect$$libinit$$00000021)
    .ARM.Collect$$libinit$$00000023          0x08000258   Section        0  libinit2.o(.ARM.Collect$$libinit$$00000023)
    .ARM.Collect$$libinit$$00000025          0x08000258   Section        0  libinit2.o(.ARM.Collect$$libinit$$00000025)
    .ARM.Collect$$libinit$$0000002C          0x08000258   Section        0  libinit2.o(.ARM.Collect$$libinit$$0000002C)
    .ARM.Collect$$libinit$$0000002E          0x08000258   Section        0  libinit2.o(.ARM.Collect$$libinit$$0000002E)
    .ARM.Collect$$libinit$$00000030          0x08000258   Section        0  libinit2.o(.ARM.Collect$$libinit$$00000030)
    .ARM.Collect$$libinit$$00000032          0x08000258   Section        0  libinit2.o(.ARM.Collect$$libinit$$00000032)
    .ARM.Collect$$libinit$$00000033          0x08000258   Section        2  libinit2.o(.ARM.Collect$$libinit$$00000033)
    .ARM.Collect$$libshutdown$$00000000      0x0800025a   Section        2  libshutdown.o(.ARM.Collect$$libshutdown$$00000000)
    .ARM.Collect$$libshutdown$$00000002      0x0800025c   Section        0  libshutdown2.o(.ARM.Collect$$libshutdown$$00000002)
    .ARM.Collect$$libshutdown$$00000004      0x0800025c   Section        0  libshutdown2.o(.ARM.Collect$$libshutdown$$00000004)
    .ARM.Collect$$libshutdown$$00000007      0x0800025c   Section        0  libshutdown2.o(.ARM.Collect$$libshutdown$$00000007)
    .ARM.Collect$$libshutdown$$0000000A      0x0800025c   Section        0  libshutdown2.o(.ARM.Collect$$libshutdown$$0000000A)
    .ARM.Collect$$libshutdown$$0000000C      0x0800025c   Section        0  libshutdown2.o(.ARM.Collect$$libshutdown$$0000000C)
    .ARM.Collect$$libshutdown$$0000000F      0x0800025c   Section        0  libshutdown2.o(.ARM.Collect$$libshutdown$$0000000F)
    .ARM.Collect$$libshutdown$$00000010      0x0800025c   Section        2  libshutdown2.o(.ARM.Collect$$libshutdown$$00000010)
    .ARM.Collect$$rtentry$$00000000          0x0800025e   Section        0  __rtentry.o(.ARM.Collect$$rtentry$$00000000)
    .ARM.Collect$$rtentry$$00000002          0x0800025e   Section        0  __rtentry2.o(.ARM.Collect$$rtentry$$00000002)
    .ARM.Collect$$rtentry$$00000004          0x0800025e   Section        6  __rtentry4.o(.ARM.Collect$$rtentry$$00000004)
    .ARM.Collect$$rtentry$$00000009          0x08000264   Section        0  __rtentry2.o(.ARM.Collect$$rtentry$$00000009)
    .ARM.Collect$$rtentry$$0000000A          0x08000264   Section        4  __rtentry2.o(.ARM.Collect$$rtentry$$0000000A)
    .ARM.Collect$$rtentry$$0000000C          0x08000268   Section        0  __rtentry2.o(.ARM.Collect$$rtentry$$0000000C)
    .ARM.Collect$$rtentry$$0000000D          0x08000268   Section        8  __rtentry2.o(.ARM.Collect$$rtentry$$0000000D)
    .ARM.Collect$$rtexit$$00000000           0x08000270   Section        2  rtexit.o(.ARM.Collect$$rtexit$$00000000)
    .ARM.Collect$$rtexit$$00000002           0x08000272   Section        0  rtexit2.o(.ARM.Collect$$rtexit$$00000002)
    .ARM.Collect$$rtexit$$00000003           0x08000272   Section        4  rtexit2.o(.ARM.Collect$$rtexit$$00000003)
    .ARM.Collect$$rtexit$$00000004           0x08000276   Section        6  rtexit2.o(.ARM.Collect$$rtexit$$00000004)
    .text                                    0x0800027c   Section       64  startup_stm32f40_41xxx.o(.text)
    $v0                                      0x0800027c   Number         0  startup_stm32f40_41xxx.o(.text)
    .text                                    0x080002bc   Section        2  use_no_semi_2.o(.text)
    .text                                    0x080002c0   Section        0  noretval__2printf.o(.text)
    .text                                    0x080002d8   Section        0  __printf.o(.text)
    .text                                    0x08000340   Section        0  _printf_str.o(.text)
    .text                                    0x08000394   Section        0  _printf_dec.o(.text)
    .text                                    0x0800040c   Section        0  _printf_hex_int.o(.text)
    .text                                    0x08000464   Section        0  strlen.o(.text)
    .text                                    0x080004a2   Section        0  strncmp.o(.text)
    .text                                    0x08000538   Section      138  rt_memcpy_v6.o(.text)
    .text                                    0x080005c2   Section       68  rt_memclr.o(.text)
    .text                                    0x08000606   Section       78  rt_memclr_w.o(.text)
    .text                                    0x08000654   Section        0  heapauxi.o(.text)
    .text                                    0x0800065a   Section        2  use_no_semi.o(.text)
    .text                                    0x0800065c   Section        0  _printf_intcommon.o(.text)
    .text                                    0x0800070e   Section        0  _printf_char.o(.text)
    .text                                    0x0800073c   Section        0  _printf_char_file.o(.text)
    .text                                    0x08000760   Section      100  rt_memcpy_w.o(.text)
    .text                                    0x080007c4   Section        0  _printf_char_common.o(.text)
    _printf_input_char                       0x080007c5   Thumb Code    10  _printf_char_common.o(.text)
    .text                                    0x080007f4   Section        0  ferror.o(.text)
    .text                                    0x080007fc   Section       74  sys_stackheap_outer.o(.text)
    .text                                    0x08000846   Section        0  exit.o(.text)
    .text                                    0x08000858   Section        8  libspace.o(.text)
    i.BusFault_Handler                       0x08000860   Section        0  stm32f4xx_it.o(i.BusFault_Handler)
    i.CmdResp1Error                          0x08000864   Section        0  sdio_sdcard.o(i.CmdResp1Error)
    i.Create_task                            0x080008c0   Section        0  clk_timer.o(i.Create_task)
    i.DebugMon_Handler                       0x08000904   Section        0  stm32f4xx_it.o(i.DebugMon_Handler)
    i.Debug_USART_Config                     0x08000908   Section        0  usart.o(i.Debug_USART_Config)
    i.EXTI0_IRQHandler                       0x08000998   Section        0  gpio.o(i.EXTI0_IRQHandler)
    i.EXTI_ClearITPendingBit                 0x080009e4   Section        0  stm32f4xx_exti.o(i.EXTI_ClearITPendingBit)
    i.EXTI_Init                              0x080009f0   Section        0  stm32f4xx_exti.o(i.EXTI_Init)
    i.FSMC_NORSRAMCmd                        0x08000a64   Section        0  stm32f4xx_fsmc.o(i.FSMC_NORSRAMCmd)
    i.FSMC_NORSRAMInit                       0x08000a88   Section        0  stm32f4xx_fsmc.o(i.FSMC_NORSRAMInit)
    i.GPIO_Init                              0x08000b52   Section        0  stm32f4xx_gpio.o(i.GPIO_Init)
    i.GPIO_PinAFConfig                       0x08000bce   Section        0  stm32f4xx_gpio.o(i.GPIO_PinAFConfig)
    i.GPIO_ReadInputDataBit                  0x08000bee   Section        0  stm32f4xx_gpio.o(i.GPIO_ReadInputDataBit)
    i.GPIO_ResetBits                         0x08000bfc   Section        0  stm32f4xx_gpio.o(i.GPIO_ResetBits)
    i.GPIO_SetBits                           0x08000c00   Section        0  stm32f4xx_gpio.o(i.GPIO_SetBits)
    i.HSE_SetSysClock                        0x08000c04   Section        0  clk_timer.o(i.HSE_SetSysClock)
    i.HardFault_Handler                      0x08000c98   Section        0  stm32f4xx_it.o(i.HardFault_Handler)
    i.Head_state                             0x08000c9c   Section        0  head.o(i.Head_state)
    i.Homeview_create                        0x08000cdc   Section        0  homeview.o(i.Homeview_create)
    i.Homeview_process                       0x08000cf4   Section        0  homeview.o(i.Homeview_process)
    i.LCD_Clear                              0x08000d1c   Section        0  lcd.o(i.LCD_Clear)
    i.LCD_Display_Dir                        0x08000d4c   Section        0  lcd.o(i.LCD_Display_Dir)
    i.LCD_Fast_DrawPoint                     0x08000d94   Section        0  lcd.o(i.LCD_Fast_DrawPoint)
    i.LCD_Fill                               0x08000de8   Section        0  lcd.o(i.LCD_Fill)
    i.LCD_Init                               0x08000e2c   Section        0  lcd.o(i.LCD_Init)
    i.LCD_RD_DATA                            0x08000ff4   Section        0  lcd.o(i.LCD_RD_DATA)
    i.LCD_ReadReg                            0x08001008   Section        0  lcd.o(i.LCD_ReadReg)
    i.LCD_Scan_Dir                           0x0800101c   Section        0  lcd.o(i.LCD_Scan_Dir)
    i.LCD_SetCursor                          0x08001114   Section        0  lcd.o(i.LCD_SetCursor)
    i.LCD_ShowChar                           0x0800115c   Section        0  lcd.o(i.LCD_ShowChar)
    i.LCD_ShowString                         0x0800123c   Section        0  lcd.o(i.LCD_ShowString)
    i.LCD_WR_DATA                            0x08001290   Section        0  lcd.o(i.LCD_WR_DATA)
    i.LCD_WR_REG                             0x0800129c   Section        0  lcd.o(i.LCD_WR_REG)
    i.LCD_WriteRAM_Prepare                   0x080012a8   Section        0  lcd.o(i.LCD_WriteRAM_Prepare)
    i.LCD_WriteReg                           0x080012bc   Section        0  lcd.o(i.LCD_WriteReg)
    i.LED_Init                               0x080012cc   Section        0  led_driver.o(i.LED_Init)
    i.LED_switch                             0x080012f0   Section        0  led_driver.o(i.LED_switch)
    i.LED_test                               0x08001314   Section        0  led_driver.o(i.LED_test)
    i.MemManage_Handler                      0x0800134a   Section        0  stm32f4xx_it.o(i.MemManage_Handler)
    i.Mon_hello                              0x0800134c   Section        0  mon.o(i.Mon_hello)
    i.Mon_polling                            0x08001394   Section        0  mon.o(i.Mon_polling)
    i.NMI_Handler                            0x080013bc   Section        0  stm32f4xx_it.o(i.NMI_Handler)
    i.NVIC_Configuration                     0x080013be   Section        0  usart.o(i.NVIC_Configuration)
    NVIC_Configuration                       0x080013bf   Thumb Code    38  usart.o(i.NVIC_Configuration)
    i.NVIC_Init                              0x080013e4   Section        0  misc.o(i.NVIC_Init)
    i.NVIC_PriorityGroupConfig               0x0800144c   Section        0  misc.o(i.NVIC_PriorityGroupConfig)
    i.PWR_BackupAccessCmd                    0x08001460   Section        0  stm32f4xx_pwr.o(i.PWR_BackupAccessCmd)
    i.PendSV_Handler                         0x0800146c   Section        0  stm32f4xx_it.o(i.PendSV_Handler)
    i.Popout_create                          0x08001470   Section        0  popout.o(i.Popout_create)
    i.Popout_process                         0x08001488   Section        0  popout.o(i.Popout_process)
    i.Popout_show                            0x080014b0   Section        0  popout.o(i.Popout_show)
    i.RCC_AHB1PeriphClockCmd                 0x080014ec   Section        0  stm32f4xx_rcc.o(i.RCC_AHB1PeriphClockCmd)
    i.RCC_AHB2PeriphClockCmd                 0x08001508   Section        0  stm32f4xx_rcc.o(i.RCC_AHB2PeriphClockCmd)
    i.RCC_AHB3PeriphClockCmd                 0x08001524   Section        0  stm32f4xx_rcc.o(i.RCC_AHB3PeriphClockCmd)
    i.RCC_APB1PeriphClockCmd                 0x08001540   Section        0  stm32f4xx_rcc.o(i.RCC_APB1PeriphClockCmd)
    i.RCC_APB1PeriphResetCmd                 0x0800155c   Section        0  stm32f4xx_rcc.o(i.RCC_APB1PeriphResetCmd)
    i.RCC_APB2PeriphClockCmd                 0x08001578   Section        0  stm32f4xx_rcc.o(i.RCC_APB2PeriphClockCmd)
    i.RCC_APB2PeriphResetCmd                 0x08001594   Section        0  stm32f4xx_rcc.o(i.RCC_APB2PeriphResetCmd)
    i.RCC_GetClocksFreq                      0x080015b0   Section        0  stm32f4xx_rcc.o(i.RCC_GetClocksFreq)
    i.RCC_GetFlagStatus                      0x08001650   Section        0  stm32f4xx_rcc.o(i.RCC_GetFlagStatus)
    i.RCC_GetSYSCLKSource                    0x08001688   Section        0  stm32f4xx_rcc.o(i.RCC_GetSYSCLKSource)
    i.RCC_HCLKConfig                         0x08001698   Section        0  stm32f4xx_rcc.o(i.RCC_HCLKConfig)
    i.RCC_HSEConfig                          0x080016ac   Section        0  stm32f4xx_rcc.o(i.RCC_HSEConfig)
    i.RCC_LSEConfig                          0x080016bc   Section        0  stm32f4xx_rcc.o(i.RCC_LSEConfig)
    i.RCC_PCLK1Config                        0x080016dc   Section        0  stm32f4xx_rcc.o(i.RCC_PCLK1Config)
    i.RCC_PCLK2Config                        0x080016f0   Section        0  stm32f4xx_rcc.o(i.RCC_PCLK2Config)
    i.RCC_PLLCmd                             0x08001704   Section        0  stm32f4xx_rcc.o(i.RCC_PLLCmd)
    i.RCC_PLLConfig                          0x08001710   Section        0  stm32f4xx_rcc.o(i.RCC_PLLConfig)
    i.RCC_RTCCLKCmd                          0x08001734   Section        0  stm32f4xx_rcc.o(i.RCC_RTCCLKCmd)
    i.RCC_RTCCLKConfig                       0x08001740   Section        0  stm32f4xx_rcc.o(i.RCC_RTCCLKConfig)
    i.RCC_SYSCLKConfig                       0x08001770   Section        0  stm32f4xx_rcc.o(i.RCC_SYSCLKConfig)
    i.RCC_WaitForHSEStartUp                  0x08001784   Section        0  stm32f4xx_rcc.o(i.RCC_WaitForHSEStartUp)
    i.RNG_Cmd                                0x080017b4   Section        0  stm32f4xx_rng.o(i.RNG_Cmd)
    i.RNG_GetFlagStatus                      0x080017d4   Section        0  stm32f4xx_rng.o(i.RNG_GetFlagStatus)
    i.RNG_Init                               0x080017e8   Section        0  sys.o(i.RNG_Init)
    i.RTC_Alarm_IRQHandler                   0x0800184c   Section        0  rtc.o(i.RTC_Alarm_IRQHandler)
    i.RTC_Bcd2ToByte                         0x0800188c   Section        0  stm32f4xx_rtc.o(i.RTC_Bcd2ToByte)
    RTC_Bcd2ToByte                           0x0800188d   Thumb Code    18  stm32f4xx_rtc.o(i.RTC_Bcd2ToByte)
    i.RTC_ByteToBcd2                         0x0800189e   Section        0  stm32f4xx_rtc.o(i.RTC_ByteToBcd2)
    RTC_ByteToBcd2                           0x0800189f   Thumb Code    24  stm32f4xx_rtc.o(i.RTC_ByteToBcd2)
    i.RTC_ClearFlag                          0x080018b8   Section        0  stm32f4xx_rtc.o(i.RTC_ClearFlag)
    i.RTC_EnterInitMode                      0x080018d4   Section        0  stm32f4xx_rtc.o(i.RTC_EnterInitMode)
    i.RTC_ExitInitMode                       0x08001918   Section        0  stm32f4xx_rtc.o(i.RTC_ExitInitMode)
    i.RTC_GetDate                            0x08001928   Section        0  stm32f4xx_rtc.o(i.RTC_GetDate)
    i.RTC_GetFlagStatus                      0x08001970   Section        0  stm32f4xx_rtc.o(i.RTC_GetFlagStatus)
    i.RTC_GetTime                            0x0800198c   Section        0  stm32f4xx_rtc.o(i.RTC_GetTime)
    i.RTC_Init                               0x080019d8   Section        0  stm32f4xx_rtc.o(i.RTC_Init)
    i.RTC_ReadBackupRegister                 0x08001a28   Section        0  stm32f4xx_rtc.o(i.RTC_ReadBackupRegister)
    i.RTC_SetDate                            0x08001a3c   Section        0  stm32f4xx_rtc.o(i.RTC_SetDate)
    i.RTC_SetTime                            0x08001ae0   Section        0  stm32f4xx_rtc.o(i.RTC_SetTime)
    i.RTC_Set_Date                           0x08001b88   Section        0  rtc.o(i.RTC_Set_Date)
    i.RTC_Set_Time                           0x08001ba4   Section        0  rtc.o(i.RTC_Set_Time)
    i.RTC_WKUP_IRQHandler                    0x08001bc0   Section        0  rtc.o(i.RTC_WKUP_IRQHandler)
    i.RTC_WaitForSynchro                     0x08001c08   Section        0  stm32f4xx_rtc.o(i.RTC_WaitForSynchro)
    i.RTC_WriteBackupRegister                0x08001c54   Section        0  stm32f4xx_rtc.o(i.RTC_WriteBackupRegister)
    i.SDIO_ClearFlag                         0x08001c68   Section        0  stm32f4xx_sdio.o(i.SDIO_ClearFlag)
    i.SDIO_GetFlagStatus                     0x08001c74   Section        0  stm32f4xx_sdio.o(i.SDIO_GetFlagStatus)
    i.SDIO_IRQHandler                        0x08001c88   Section        0  sdio_sdcard.o(i.SDIO_IRQHandler)
    i.SDIO_SendCommand                       0x08001c8c   Section        0  stm32f4xx_sdio.o(i.SDIO_SendCommand)
    i.SD_ProcessIRQSrc                       0x08001cb4   Section        0  sdio_sdcard.o(i.SD_ProcessIRQSrc)
    i.SPI1_ReadWriteByte                     0x08001da8   Section        0  spi.o(i.SPI1_ReadWriteByte)
    i.SPI_Cmd                                0x08001ddc   Section        0  stm32f4xx_spi.o(i.SPI_Cmd)
    i.SPI_I2S_GetFlagStatus                  0x08001df4   Section        0  stm32f4xx_spi.o(i.SPI_I2S_GetFlagStatus)
    i.SPI_I2S_ReceiveData                    0x08001e02   Section        0  stm32f4xx_spi.o(i.SPI_I2S_ReceiveData)
    i.SPI_I2S_SendData                       0x08001e06   Section        0  stm32f4xx_spi.o(i.SPI_I2S_SendData)
    i.SPI_Init                               0x08001e0a   Section        0  stm32f4xx_spi.o(i.SPI_Init)
    i.SVC_Handler                            0x08001e42   Section        0  stm32f4xx_it.o(i.SVC_Handler)
    i.SYSCFG_EXTILineConfig                  0x08001e44   Section        0  stm32f4xx_syscfg.o(i.SYSCFG_EXTILineConfig)
    i.Send_message                           0x08001e70   Section        0  view.o(i.Send_message)
    i.SetSysClock                            0x08001e8c   Section        0  system_stm32f4xx.o(i.SetSysClock)
    SetSysClock                              0x08001e8d   Thumb Code   168  system_stm32f4xx.o(i.SetSysClock)
    i.Setup_show                             0x08001f44   Section        0  setupview.o(i.Setup_show)
    i.Setupview_create                       0x08001fac   Section        0  setupview.o(i.Setupview_create)
    i.Setupview_process                      0x08001fc4   Section        0  setupview.o(i.Setupview_process)
    i.SysTick_Handler                        0x08001fec   Section        0  clk_timer.o(i.SysTick_Handler)
    i.SysTick_init                           0x0800202c   Section        0  clk_timer.o(i.SysTick_init)
    i.SystemInit                             0x0800206c   Section        0  system_stm32f4xx.o(i.SystemInit)
    i.Touch_process                          0x080020c8   Section        0  homeview.o(i.Touch_process)
    Touch_process                            0x080020c9   Thumb Code    82  homeview.o(i.Touch_process)
    i.Touch_process                          0x08002120   Section        0  popout.o(i.Touch_process)
    Touch_process                            0x08002121   Thumb Code    62  popout.o(i.Touch_process)
    i.Touch_process                          0x08002164   Section        0  setupview.o(i.Touch_process)
    i.USART1_IRQHandler                      0x080021b4   Section        0  usart.o(i.USART1_IRQHandler)
    i.USART_Cmd                              0x08002234   Section        0  stm32f4xx_usart.o(i.USART_Cmd)
    i.USART_GetFlagStatus                    0x0800224c   Section        0  stm32f4xx_usart.o(i.USART_GetFlagStatus)
    i.USART_GetITStatus                      0x0800225a   Section        0  stm32f4xx_usart.o(i.USART_GetITStatus)
    i.USART_ITConfig                         0x0800229a   Section        0  stm32f4xx_usart.o(i.USART_ITConfig)
    i.USART_Init                             0x080022d0   Section        0  stm32f4xx_usart.o(i.USART_Init)
    i.USART_ReceiveData                      0x0800238c   Section        0  stm32f4xx_usart.o(i.USART_ReceiveData)
    i.USART_SendData                         0x08002394   Section        0  stm32f4xx_usart.o(i.USART_SendData)
    i.UsageFault_Handler                     0x0800239c   Section        0  stm32f4xx_it.o(i.UsageFault_Handler)
    i.Usart_SendByte                         0x0800239e   Section        0  usart.o(i.Usart_SendByte)
    i.Usart_SendString                       0x080023b6   Section        0  usart.o(i.Usart_SendString)
    i.View_create                            0x080023dc   Section        0  view.o(i.View_create)
    i.View_destroy                           0x080023fc   Section        0  view.o(i.View_destroy)
    i.View_init                              0x08002418   Section        0  view.o(i.View_init)
    i.View_switch                            0x08002420   Section        0  view.o(i.View_switch)
    i.W25QXX_Init                            0x08002450   Section        0  w25q16.o(i.W25QXX_Init)
    i.W25QXX_ReadID                          0x080024ac   Section        0  w25q16.o(i.W25QXX_ReadID)
    i.WWDG_ClearFlag                         0x080024fc   Section        0  stm32f4xx_wwdg.o(i.WWDG_ClearFlag)
    i.WWDG_DeInit                            0x08002508   Section        0  stm32f4xx_wwdg.o(i.WWDG_DeInit)
    i.WWDG_IRQHandler                        0x08002520   Section        0  wwdg.o(i.WWDG_IRQHandler)
    i.WWDG_SetCounter                        0x08002540   Section        0  stm32f4xx_wwdg.o(i.WWDG_SetCounter)
    i.WWDG_feed                              0x08002550   Section        0  wwdg.o(i.WWDG_feed)
    i._sys_exit                              0x08002556   Section        0  usart.o(i._sys_exit)
    i.check_runout                           0x08002558   Section        0  clk_timer.o(i.check_runout)
    i.check_tick                             0x0800258c   Section        0  clk_timer.o(i.check_tick)
    i.check_timeout                          0x08002598   Section        0  clk_timer.o(i.check_timeout)
    i.command_handler                        0x080025c4   Section        0  mon.o(i.command_handler)
    i.deal_overflow                          0x08002634   Section        0  clk_timer.o(i.deal_overflow)
    i.delay_ms                               0x08002650   Section        0  clk_timer.o(i.delay_ms)
    i.delay_us                               0x0800266c   Section        0  clk_timer.o(i.delay_us)
    i.flash_spi_init                         0x08002678   Section        0  spi.o(i.flash_spi_init)
    i.fputc                                  0x0800273c   Section        0  usart.o(i.fputc)
    i.get_mon_buf                            0x08002750   Section        0  usart.o(i.get_mon_buf)
    i.get_time                               0x0800276c   Section        0  rtc.o(i.get_time)
    i.gpio_init                              0x080027ac   Section        0  gpio.o(i.gpio_init)
    i.gpio_out                               0x08002814   Section        0  gpio.o(i.gpio_out)
    i.home_show                              0x08002820   Section        0  homeview.o(i.home_show)
    i.insert_execute                         0x0800288c   Section        0  clk_timer.o(i.insert_execute)
    i.insert_task                            0x08002894   Section        0  clk_timer.o(i.insert_task)
    i.insert_task_list                       0x08002900   Section        0  clk_timer.o(i.insert_task_list)
    i.insert_task_tail                       0x0800299c   Section        0  clk_timer.o(i.insert_task_tail)
    i.io_interrupt_init                      0x080029b8   Section        0  gpio.o(i.io_interrupt_init)
    i.key0_task                              0x080029f4   Section        0  keyboard_driver.o(i.key0_task)
    i.key1_task                              0x08002a7c   Section        0  keyboard_driver.o(i.key1_task)
    i.key_init                               0x08002b04   Section        0  keyboard_driver.o(i.key_init)
    i.key_task_init                          0x08002b48   Section        0  keyboard_driver.o(i.key_task_init)
    i.lcd_soft_init                          0x08002b60   Section        0  lcd.o(i.lcd_soft_init)
    i.main                                   0x08003c0c   Section        0  main.o(i.main)
    i.mon_flag_rw                            0x08003c68   Section        0  usart.o(i.mon_flag_rw)
    i.ms_10                                  0x08003c78   Section        0  clk_timer.o(i.ms_10)
    i.ms_100                                 0x08003c90   Section        0  clk_timer.o(i.ms_100)
    i.my_free                                0x08003ca8   Section        0  head.o(i.my_free)
    i.my_head_init                           0x08003d38   Section        0  head.o(i.my_head_init)
    i.my_malloc                              0x08003d74   Section        0  head.o(i.my_malloc)
    i.polling                                0x08003df0   Section        0  clk_timer.o(i.polling)
    i.reset_data                             0x08003e24   Section        0  usart.o(i.reset_data)
    i.reset_mon_buf                          0x08003e30   Section        0  usart.o(i.reset_mon_buf)
    i.rtc_init                               0x08003e3c   Section        0  rtc.o(i.rtc_init)
    i.search_arg                             0x08003ec4   Section        0  mon.o(i.search_arg)
    i.search_command                         0x08003f2c   Section        0  mon.o(i.search_command)
    i.search_len                             0x08003f6c   Section        0  mon.o(i.search_len)
    i.send_touch                             0x08003f8c   Section        0  mon.o(i.send_touch)
    i.sys_init                               0x08003fd0   Section        0  main.o(i.sys_init)
    i.task_init                              0x0800400c   Section        0  main.o(i.task_init)
    i.timer_test                             0x08004010   Section        0  mon.o(i.timer_test)
    i.timer_test_func                        0x08004080   Section        0  mon.o(i.timer_test_func)
    i.to_int                                 0x080040a0   Section        0  mon.o(i.to_int)
    x$fpl$fpinit                             0x080040f4   Section       10  fpinit.o(x$fpl$fpinit)
    $v0                                      0x080040f4   Number         0  fpinit.o(x$fpl$fpinit)
    .constdata                               0x080040fe   Section     6080  lcd.o(.constdata)
    .constdata                               0x080058c0   Section       32  homeview.o(.constdata)
    touch_xy                                 0x080058c0   Data          32  homeview.o(.constdata)
    .constdata                               0x080058e0   Section       16  popout.o(.constdata)
    touch_xy                                 0x080058e0   Data          16  popout.o(.constdata)
    .constdata                               0x080058f0   Section       32  setupview.o(.constdata)
    touch_xy                                 0x080058f0   Data          32  setupview.o(.constdata)
    .constdata                               0x08005910   Section       12  view.o(.constdata)
    view_table                               0x08005910   Data          12  view.o(.constdata)
    .constdata                               0x0800591c   Section       40  _printf_hex_int.o(.constdata)
    uc_hextab                                0x0800591c   Data          20  _printf_hex_int.o(.constdata)
    lc_hextab                                0x08005930   Data          20  _printf_hex_int.o(.constdata)
    .conststring                             0x08005944   Section       31  mon.o(.conststring)
    .data                                    0x20000000   Section       20  system_stm32f4xx.o(.data)
    .data                                    0x20000014   Section       16  stm32f4xx_rcc.o(.data)
    APBAHBPrescTable                         0x20000014   Data          16  stm32f4xx_rcc.o(.data)
    .data                                    0x20000024   Section       44  clk_timer.o(.data)
    ms_tick                                  0x20000024   Data           4  clk_timer.o(.data)
    flag_10ms                                0x20000028   Data           4  clk_timer.o(.data)
    flag_100ms                               0x2000002c   Data           4  clk_timer.o(.data)
    .data                                    0x20000050   Section        8  gpio.o(.data)
    keyup_status                             0x20000050   Data           1  gpio.o(.data)
    IRQ_flag                                 0x20000054   Data           4  gpio.o(.data)
    .data                                    0x20000058   Section       68  head.o(.data)
    .data                                    0x2000009c   Section       16  head.o(.data)
    .data                                    0x200000ac   Section        4  usart.o(.data)
    .data                                    0x200000b0   Section       16  sdio_sdcard.o(.data)
    CardType                                 0x200000b0   Data           1  sdio_sdcard.o(.data)
    DeviceMode                               0x200000b1   Data           1  sdio_sdcard.o(.data)
    StopCondition                            0x200000b2   Data           1  sdio_sdcard.o(.data)
    RCA                                      0x200000b4   Data           4  sdio_sdcard.o(.data)
    .data                                    0x200000c0   Section       48  keyboard_driver.o(.data)
    .data                                    0x200000f0   Section       44  mon.o(.data)
    .data                                    0x2000011c   Section        2  w25q16.o(.data)
    .data                                    0x2000011e   Section        4  lcd.o(.data)
    .data                                    0x20000124   Section        8  view.o(.data)
    .bss                                     0x2000012c   Section       32  clk_timer.o(.bss)
    .bss                                     0x2000014c   Section       24  gpio.o(.bss)
    .bss                                     0x20000164   Section     2988  head.o(.bss)
    .bss                                     0x20000d10   Section       72  usart.o(.bss)
    debug                                    0x20000d10   Data          34  usart.o(.bss)
    monitor                                  0x20000d34   Data          36  usart.o(.bss)
    .bss                                     0x20000d58   Section      704  sdio_sdcard.o(.bss)
    CSD_Tab                                  0x20000d9c   Data          16  sdio_sdcard.o(.bss)
    CID_Tab                                  0x20000dac   Data          16  sdio_sdcard.o(.bss)
    .bss                                     0x20001018   Section       14  lcd.o(.bss)
    .bss                                     0x20001028   Section       12  view.o(.bss)
    .bss                                     0x20001034   Section       96  libspace.o(.bss)
    HEAP                                     0x20001098   Section      512  startup_stm32f40_41xxx.o(HEAP)
    Heap_Mem                                 0x20001098   Data         512  startup_stm32f40_41xxx.o(HEAP)
    STACK                                    0x20001298   Section     1024  startup_stm32f40_41xxx.o(STACK)
    Stack_Mem                                0x20001298   Data        1024  startup_stm32f40_41xxx.o(STACK)
    __initial_sp                             0x20001698   Data           0  startup_stm32f40_41xxx.o(STACK)

    Global Symbols

    Symbol Name                              Value     Ov Type        Size  Object(Section)

    BuildAttributes$$THM_ISAv4$E$P$D$K$B$S$7EM$VFPi3$EXTD16$VFPS$VFMA$PE$A:L22UL41UL21$X:L11$S22US41US21$IEEE1$IW$USESV6$~STKCKD$USESV7$ENUMINT$~SHL$OSPACE$ROPI$EBA8$UX$STANDARDLIB$REQ8$PRES8$EABIv2 0x00000000   Number         0  anon$$obj.o ABSOLUTE
    __ARM_use_no_argv                        0x00000000   Number         0  main.o ABSOLUTE
    __ARM_exceptions_init                     - Undefined Weak Reference
    __alloca_initialize                       - Undefined Weak Reference
    __arm_preinit_                            - Undefined Weak Reference
    __cpp_initialize__aeabi_                  - Undefined Weak Reference
    __cxa_finalize                            - Undefined Weak Reference
    __rt_locale                               - Undefined Weak Reference
    __sigvec_lookup                           - Undefined Weak Reference
    _atexit_init                              - Undefined Weak Reference
    _call_atexit_fns                          - Undefined Weak Reference
    _clock_init                               - Undefined Weak Reference
    _fp_trap_init                             - Undefined Weak Reference
    _fp_trap_shutdown                         - Undefined Weak Reference
    _get_lc_collate                           - Undefined Weak Reference
    _get_lc_ctype                             - Undefined Weak Reference
    _get_lc_monetary                          - Undefined Weak Reference
    _get_lc_numeric                           - Undefined Weak Reference
    _get_lc_time                              - Undefined Weak Reference
    _getenv_init                              - Undefined Weak Reference
    _handle_redirection                       - Undefined Weak Reference
    _init_alloc                               - Undefined Weak Reference
    _init_user_alloc                          - Undefined Weak Reference
    _initio                                   - Undefined Weak Reference
    _mutex_acquire                            - Undefined Weak Reference
    _mutex_release                            - Undefined Weak Reference
    _printf_mbtowc                            - Undefined Weak Reference
    _printf_post_padding                      - Undefined Weak Reference
    _printf_pre_padding                       - Undefined Weak Reference
    _printf_truncate_signed                   - Undefined Weak Reference
    _printf_truncate_unsigned                 - Undefined Weak Reference
    _rand_init                                - Undefined Weak Reference
    _signal_finish                            - Undefined Weak Reference
    _signal_init                              - Undefined Weak Reference
    _terminate_alloc                          - Undefined Weak Reference
    _terminate_user_alloc                     - Undefined Weak Reference
    _terminateio                              - Undefined Weak Reference
    __Vectors_Size                           0x00000188   Number         0  startup_stm32f40_41xxx.o ABSOLUTE
    __Vectors                                0x08000000   Data           4  startup_stm32f40_41xxx.o(RESET)
    __Vectors_End                            0x08000188   Data           0  startup_stm32f40_41xxx.o(RESET)
    __main                                   0x08000189   Thumb Code     8  __main.o(!!!main)
    __scatterload                            0x08000191   Thumb Code     0  __scatter.o(!!!scatter)
    __scatterload_rt2                        0x08000191   Thumb Code    44  __scatter.o(!!!scatter)
    __scatterload_rt2_thumb_only             0x08000191   Thumb Code     0  __scatter.o(!!!scatter)
    __scatterload_null                       0x0800019f   Thumb Code     0  __scatter.o(!!!scatter)
    __decompress                             0x080001c5   Thumb Code    90  __dczerorl2.o(!!dczerorl2)
    __decompress1                            0x080001c5   Thumb Code     0  __dczerorl2.o(!!dczerorl2)
    __scatterload_zeroinit                   0x08000221   Thumb Code    28  __scatter_zi.o(!!handler_zi)
    _printf_d                                0x0800023d   Thumb Code     0  _printf_d.o(.ARM.Collect$$_printf_percent$$00000009)
    _printf_percent                          0x0800023d   Thumb Code     0  _printf_percent.o(.ARM.Collect$$_printf_percent$$00000000)
    _printf_x                                0x08000243   Thumb Code     0  _printf_x.o(.ARM.Collect$$_printf_percent$$0000000C)
    _printf_s                                0x08000249   Thumb Code     0  _printf_s.o(.ARM.Collect$$_printf_percent$$00000014)
    _printf_percent_end                      0x0800024f   Thumb Code     0  _printf_percent_end.o(.ARM.Collect$$_printf_percent$$00000017)
    __rt_lib_init                            0x08000253   Thumb Code     0  libinit.o(.ARM.Collect$$libinit$$00000000)
    __rt_lib_init_fp_1                       0x08000255   Thumb Code     0  libinit2.o(.ARM.Collect$$libinit$$00000001)
    __rt_lib_init_alloca_1                   0x08000259   Thumb Code     0  libinit2.o(.ARM.Collect$$libinit$$0000002E)
    __rt_lib_init_argv_1                     0x08000259   Thumb Code     0  libinit2.o(.ARM.Collect$$libinit$$0000002C)
    __rt_lib_init_atexit_1                   0x08000259   Thumb Code     0  libinit2.o(.ARM.Collect$$libinit$$0000001B)
    __rt_lib_init_clock_1                    0x08000259   Thumb Code     0  libinit2.o(.ARM.Collect$$libinit$$00000021)
    __rt_lib_init_cpp_1                      0x08000259   Thumb Code     0  libinit2.o(.ARM.Collect$$libinit$$00000032)
    __rt_lib_init_exceptions_1               0x08000259   Thumb Code     0  libinit2.o(.ARM.Collect$$libinit$$00000030)
    __rt_lib_init_fp_trap_1                  0x08000259   Thumb Code     0  libinit2.o(.ARM.Collect$$libinit$$0000001F)
    __rt_lib_init_getenv_1                   0x08000259   Thumb Code     0  libinit2.o(.ARM.Collect$$libinit$$00000023)
    __rt_lib_init_heap_1                     0x08000259   Thumb Code     0  libinit2.o(.ARM.Collect$$libinit$$0000000A)
    __rt_lib_init_lc_collate_1               0x08000259   Thumb Code     0  libinit2.o(.ARM.Collect$$libinit$$00000011)
    __rt_lib_init_lc_ctype_1                 0x08000259   Thumb Code     0  libinit2.o(.ARM.Collect$$libinit$$00000013)
    __rt_lib_init_lc_monetary_1              0x08000259   Thumb Code     0  libinit2.o(.ARM.Collect$$libinit$$00000015)
    __rt_lib_init_lc_numeric_1               0x08000259   Thumb Code     0  libinit2.o(.ARM.Collect$$libinit$$00000017)
    __rt_lib_init_lc_time_1                  0x08000259   Thumb Code     0  libinit2.o(.ARM.Collect$$libinit$$00000019)
    __rt_lib_init_preinit_1                  0x08000259   Thumb Code     0  libinit2.o(.ARM.Collect$$libinit$$00000004)
    __rt_lib_init_rand_1                     0x08000259   Thumb Code     0  libinit2.o(.ARM.Collect$$libinit$$0000000E)
    __rt_lib_init_return                     0x08000259   Thumb Code     0  libinit2.o(.ARM.Collect$$libinit$$00000033)
    __rt_lib_init_signal_1                   0x08000259   Thumb Code     0  libinit2.o(.ARM.Collect$$libinit$$0000001D)
    __rt_lib_init_stdio_1                    0x08000259   Thumb Code     0  libinit2.o(.ARM.Collect$$libinit$$00000025)
    __rt_lib_init_user_alloc_1               0x08000259   Thumb Code     0  libinit2.o(.ARM.Collect$$libinit$$0000000C)
    __rt_lib_shutdown                        0x0800025b   Thumb Code     0  libshutdown.o(.ARM.Collect$$libshutdown$$00000000)
    __rt_lib_shutdown_cpp_1                  0x0800025d   Thumb Code     0  libshutdown2.o(.ARM.Collect$$libshutdown$$00000002)
    __rt_lib_shutdown_fp_trap_1              0x0800025d   Thumb Code     0  libshutdown2.o(.ARM.Collect$$libshutdown$$00000007)
    __rt_lib_shutdown_heap_1                 0x0800025d   Thumb Code     0  libshutdown2.o(.ARM.Collect$$libshutdown$$0000000F)
    __rt_lib_shutdown_return                 0x0800025d   Thumb Code     0  libshutdown2.o(.ARM.Collect$$libshutdown$$00000010)
    __rt_lib_shutdown_signal_1               0x0800025d   Thumb Code     0  libshutdown2.o(.ARM.Collect$$libshutdown$$0000000A)
    __rt_lib_shutdown_stdio_1                0x0800025d   Thumb Code     0  libshutdown2.o(.ARM.Collect$$libshutdown$$00000004)
    __rt_lib_shutdown_user_alloc_1           0x0800025d   Thumb Code     0  libshutdown2.o(.ARM.Collect$$libshutdown$$0000000C)
    __rt_entry                               0x0800025f   Thumb Code     0  __rtentry.o(.ARM.Collect$$rtentry$$00000000)
    __rt_entry_presh_1                       0x0800025f   Thumb Code     0  __rtentry2.o(.ARM.Collect$$rtentry$$00000002)
    __rt_entry_sh                            0x0800025f   Thumb Code     0  __rtentry4.o(.ARM.Collect$$rtentry$$00000004)
    __rt_entry_li                            0x08000265   Thumb Code     0  __rtentry2.o(.ARM.Collect$$rtentry$$0000000A)
    __rt_entry_postsh_1                      0x08000265   Thumb Code     0  __rtentry2.o(.ARM.Collect$$rtentry$$00000009)
    __rt_entry_main                          0x08000269   Thumb Code     0  __rtentry2.o(.ARM.Collect$$rtentry$$0000000D)
    __rt_entry_postli_1                      0x08000269   Thumb Code     0  __rtentry2.o(.ARM.Collect$$rtentry$$0000000C)
    __rt_exit                                0x08000271   Thumb Code     0  rtexit.o(.ARM.Collect$$rtexit$$00000000)
    __rt_exit_ls                             0x08000273   Thumb Code     0  rtexit2.o(.ARM.Collect$$rtexit$$00000003)
    __rt_exit_prels_1                        0x08000273   Thumb Code     0  rtexit2.o(.ARM.Collect$$rtexit$$00000002)
    __rt_exit_exit                           0x08000277   Thumb Code     0  rtexit2.o(.ARM.Collect$$rtexit$$00000004)
    Reset_Handler                            0x0800027d   Thumb Code     8  startup_stm32f40_41xxx.o(.text)
    ADC_IRQHandler                           0x08000297   Thumb Code     0  startup_stm32f40_41xxx.o(.text)
    CAN1_RX0_IRQHandler                      0x08000297   Thumb Code     0  startup_stm32f40_41xxx.o(.text)
    CAN1_RX1_IRQHandler                      0x08000297   Thumb Code     0  startup_stm32f40_41xxx.o(.text)
    CAN1_SCE_IRQHandler                      0x08000297   Thumb Code     0  startup_stm32f40_41xxx.o(.text)
    CAN1_TX_IRQHandler                       0x08000297   Thumb Code     0  startup_stm32f40_41xxx.o(.text)
    CAN2_RX0_IRQHandler                      0x08000297   Thumb Code     0  startup_stm32f40_41xxx.o(.text)
    CAN2_RX1_IRQHandler                      0x08000297   Thumb Code     0  startup_stm32f40_41xxx.o(.text)
    CAN2_SCE_IRQHandler                      0x08000297   Thumb Code     0  startup_stm32f40_41xxx.o(.text)
    CAN2_TX_IRQHandler                       0x08000297   Thumb Code     0  startup_stm32f40_41xxx.o(.text)
    CRYP_IRQHandler                          0x08000297   Thumb Code     0  startup_stm32f40_41xxx.o(.text)
    DCMI_IRQHandler                          0x08000297   Thumb Code     0  startup_stm32f40_41xxx.o(.text)
    DMA1_Stream0_IRQHandler                  0x08000297   Thumb Code     0  startup_stm32f40_41xxx.o(.text)
    DMA1_Stream1_IRQHandler                  0x08000297   Thumb Code     0  startup_stm32f40_41xxx.o(.text)
    DMA1_Stream2_IRQHandler                  0x08000297   Thumb Code     0  startup_stm32f40_41xxx.o(.text)
    DMA1_Stream3_IRQHandler                  0x08000297   Thumb Code     0  startup_stm32f40_41xxx.o(.text)
    DMA1_Stream4_IRQHandler                  0x08000297   Thumb Code     0  startup_stm32f40_41xxx.o(.text)
    DMA1_Stream5_IRQHandler                  0x08000297   Thumb Code     0  startup_stm32f40_41xxx.o(.text)
    DMA1_Stream6_IRQHandler                  0x08000297   Thumb Code     0  startup_stm32f40_41xxx.o(.text)
    DMA1_Stream7_IRQHandler                  0x08000297   Thumb Code     0  startup_stm32f40_41xxx.o(.text)
    DMA2_Stream0_IRQHandler                  0x08000297   Thumb Code     0  startup_stm32f40_41xxx.o(.text)
    DMA2_Stream1_IRQHandler                  0x08000297   Thumb Code     0  startup_stm32f40_41xxx.o(.text)
    DMA2_Stream2_IRQHandler                  0x08000297   Thumb Code     0  startup_stm32f40_41xxx.o(.text)
    DMA2_Stream3_IRQHandler                  0x08000297   Thumb Code     0  startup_stm32f40_41xxx.o(.text)
    DMA2_Stream4_IRQHandler                  0x08000297   Thumb Code     0  startup_stm32f40_41xxx.o(.text)
    DMA2_Stream5_IRQHandler                  0x08000297   Thumb Code     0  startup_stm32f40_41xxx.o(.text)
    DMA2_Stream6_IRQHandler                  0x08000297   Thumb Code     0  startup_stm32f40_41xxx.o(.text)
    DMA2_Stream7_IRQHandler                  0x08000297   Thumb Code     0  startup_stm32f40_41xxx.o(.text)
    ETH_IRQHandler                           0x08000297   Thumb Code     0  startup_stm32f40_41xxx.o(.text)
    ETH_WKUP_IRQHandler                      0x08000297   Thumb Code     0  startup_stm32f40_41xxx.o(.text)
    EXTI15_10_IRQHandler                     0x08000297   Thumb Code     0  startup_stm32f40_41xxx.o(.text)
    EXTI1_IRQHandler                         0x08000297   Thumb Code     0  startup_stm32f40_41xxx.o(.text)
    EXTI2_IRQHandler                         0x08000297   Thumb Code     0  startup_stm32f40_41xxx.o(.text)
    EXTI3_IRQHandler                         0x08000297   Thumb Code     0  startup_stm32f40_41xxx.o(.text)
    EXTI4_IRQHandler                         0x08000297   Thumb Code     0  startup_stm32f40_41xxx.o(.text)
    EXTI9_5_IRQHandler                       0x08000297   Thumb Code     0  startup_stm32f40_41xxx.o(.text)
    FLASH_IRQHandler                         0x08000297   Thumb Code     0  startup_stm32f40_41xxx.o(.text)
    FPU_IRQHandler                           0x08000297   Thumb Code     0  startup_stm32f40_41xxx.o(.text)
    FSMC_IRQHandler                          0x08000297   Thumb Code     0  startup_stm32f40_41xxx.o(.text)
    HASH_RNG_IRQHandler                      0x08000297   Thumb Code     0  startup_stm32f40_41xxx.o(.text)
    I2C1_ER_IRQHandler                       0x08000297   Thumb Code     0  startup_stm32f40_41xxx.o(.text)
    I2C1_EV_IRQHandler                       0x08000297   Thumb Code     0  startup_stm32f40_41xxx.o(.text)
    I2C2_ER_IRQHandler                       0x08000297   Thumb Code     0  startup_stm32f40_41xxx.o(.text)
    I2C2_EV_IRQHandler                       0x08000297   Thumb Code     0  startup_stm32f40_41xxx.o(.text)
    I2C3_ER_IRQHandler                       0x08000297   Thumb Code     0  startup_stm32f40_41xxx.o(.text)
    I2C3_EV_IRQHandler                       0x08000297   Thumb Code     0  startup_stm32f40_41xxx.o(.text)
    OTG_FS_IRQHandler                        0x08000297   Thumb Code     0  startup_stm32f40_41xxx.o(.text)
    OTG_FS_WKUP_IRQHandler                   0x08000297   Thumb Code     0  startup_stm32f40_41xxx.o(.text)
    OTG_HS_EP1_IN_IRQHandler                 0x08000297   Thumb Code     0  startup_stm32f40_41xxx.o(.text)
    OTG_HS_EP1_OUT_IRQHandler                0x08000297   Thumb Code     0  startup_stm32f40_41xxx.o(.text)
    OTG_HS_IRQHandler                        0x08000297   Thumb Code     0  startup_stm32f40_41xxx.o(.text)
    OTG_HS_WKUP_IRQHandler                   0x08000297   Thumb Code     0  startup_stm32f40_41xxx.o(.text)
    PVD_IRQHandler                           0x08000297   Thumb Code     0  startup_stm32f40_41xxx.o(.text)
    RCC_IRQHandler                           0x08000297   Thumb Code     0  startup_stm32f40_41xxx.o(.text)
    SPI1_IRQHandler                          0x08000297   Thumb Code     0  startup_stm32f40_41xxx.o(.text)
    SPI2_IRQHandler                          0x08000297   Thumb Code     0  startup_stm32f40_41xxx.o(.text)
    SPI3_IRQHandler                          0x08000297   Thumb Code     0  startup_stm32f40_41xxx.o(.text)
    TAMP_STAMP_IRQHandler                    0x08000297   Thumb Code     0  startup_stm32f40_41xxx.o(.text)
    TIM1_BRK_TIM9_IRQHandler                 0x08000297   Thumb Code     0  startup_stm32f40_41xxx.o(.text)
    TIM1_CC_IRQHandler                       0x08000297   Thumb Code     0  startup_stm32f40_41xxx.o(.text)
    TIM1_TRG_COM_TIM11_IRQHandler            0x08000297   Thumb Code     0  startup_stm32f40_41xxx.o(.text)
    TIM1_UP_TIM10_IRQHandler                 0x08000297   Thumb Code     0  startup_stm32f40_41xxx.o(.text)
    TIM2_IRQHandler                          0x08000297   Thumb Code     0  startup_stm32f40_41xxx.o(.text)
    TIM3_IRQHandler                          0x08000297   Thumb Code     0  startup_stm32f40_41xxx.o(.text)
    TIM4_IRQHandler                          0x08000297   Thumb Code     0  startup_stm32f40_41xxx.o(.text)
    TIM5_IRQHandler                          0x08000297   Thumb Code     0  startup_stm32f40_41xxx.o(.text)
    TIM6_DAC_IRQHandler                      0x08000297   Thumb Code     0  startup_stm32f40_41xxx.o(.text)
    TIM7_IRQHandler                          0x08000297   Thumb Code     0  startup_stm32f40_41xxx.o(.text)
    TIM8_BRK_TIM12_IRQHandler                0x08000297   Thumb Code     0  startup_stm32f40_41xxx.o(.text)
    TIM8_CC_IRQHandler                       0x08000297   Thumb Code     0  startup_stm32f40_41xxx.o(.text)
    TIM8_TRG_COM_TIM14_IRQHandler            0x08000297   Thumb Code     0  startup_stm32f40_41xxx.o(.text)
    TIM8_UP_TIM13_IRQHandler                 0x08000297   Thumb Code     0  startup_stm32f40_41xxx.o(.text)
    UART4_IRQHandler                         0x08000297   Thumb Code     0  startup_stm32f40_41xxx.o(.text)
    UART5_IRQHandler                         0x08000297   Thumb Code     0  startup_stm32f40_41xxx.o(.text)
    USART2_IRQHandler                        0x08000297   Thumb Code     0  startup_stm32f40_41xxx.o(.text)
    USART3_IRQHandler                        0x08000297   Thumb Code     0  startup_stm32f40_41xxx.o(.text)
    USART6_IRQHandler                        0x08000297   Thumb Code     0  startup_stm32f40_41xxx.o(.text)
    __user_initial_stackheap                 0x08000299   Thumb Code     0  startup_stm32f40_41xxx.o(.text)
    __use_no_semihosting                     0x080002bd   Thumb Code     2  use_no_semi_2.o(.text)
    __2printf                                0x080002c1   Thumb Code    20  noretval__2printf.o(.text)
    __printf                                 0x080002d9   Thumb Code   104  __printf.o(.text)
    _printf_str                              0x08000341   Thumb Code    82  _printf_str.o(.text)
    _printf_int_dec                          0x08000395   Thumb Code   104  _printf_dec.o(.text)
    _printf_int_hex                          0x0800040d   Thumb Code    84  _printf_hex_int.o(.text)
    _printf_longlong_hex                     0x0800040d   Thumb Code     0  _printf_hex_int.o(.text)
    strlen                                   0x08000465   Thumb Code    62  strlen.o(.text)
    strncmp                                  0x080004a3   Thumb Code   150  strncmp.o(.text)
    __aeabi_memcpy                           0x08000539   Thumb Code     0  rt_memcpy_v6.o(.text)
    __rt_memcpy                              0x08000539   Thumb Code   138  rt_memcpy_v6.o(.text)
    _memcpy_lastbytes                        0x0800059f   Thumb Code     0  rt_memcpy_v6.o(.text)
    __aeabi_memclr                           0x080005c3   Thumb Code     0  rt_memclr.o(.text)
    __rt_memclr                              0x080005c3   Thumb Code    68  rt_memclr.o(.text)
    _memset                                  0x080005c7   Thumb Code     0  rt_memclr.o(.text)
    __aeabi_memclr4                          0x08000607   Thumb Code     0  rt_memclr_w.o(.text)
    __aeabi_memclr8                          0x08000607   Thumb Code     0  rt_memclr_w.o(.text)
    __rt_memclr_w                            0x08000607   Thumb Code    78  rt_memclr_w.o(.text)
    _memset_w                                0x0800060b   Thumb Code     0  rt_memclr_w.o(.text)
    __use_two_region_memory                  0x08000655   Thumb Code     2  heapauxi.o(.text)
    __rt_heap_escrow$2region                 0x08000657   Thumb Code     2  heapauxi.o(.text)
    __rt_heap_expand$2region                 0x08000659   Thumb Code     2  heapauxi.o(.text)
    __I$use$semihosting                      0x0800065b   Thumb Code     0  use_no_semi.o(.text)
    __use_no_semihosting_swi                 0x0800065b   Thumb Code     2  use_no_semi.o(.text)
    _printf_int_common                       0x0800065d   Thumb Code   178  _printf_intcommon.o(.text)
    _printf_cs_common                        0x0800070f   Thumb Code    20  _printf_char.o(.text)
    _printf_char                             0x08000723   Thumb Code    16  _printf_char.o(.text)
    _printf_string                           0x08000733   Thumb Code     8  _printf_char.o(.text)
    _printf_char_file                        0x0800073d   Thumb Code    32  _printf_char_file.o(.text)
    __aeabi_memcpy4                          0x08000761   Thumb Code     0  rt_memcpy_w.o(.text)
    __aeabi_memcpy8                          0x08000761   Thumb Code     0  rt_memcpy_w.o(.text)
    __rt_memcpy_w                            0x08000761   Thumb Code   100  rt_memcpy_w.o(.text)
    _memcpy_lastbytes_aligned                0x080007a9   Thumb Code     0  rt_memcpy_w.o(.text)
    _printf_char_common                      0x080007cf   Thumb Code    32  _printf_char_common.o(.text)
    ferror                                   0x080007f5   Thumb Code     8  ferror.o(.text)
    __user_setup_stackheap                   0x080007fd   Thumb Code    74  sys_stackheap_outer.o(.text)
    exit                                     0x08000847   Thumb Code    18  exit.o(.text)
    __user_libspace                          0x08000859   Thumb Code     8  libspace.o(.text)
    __user_perproc_libspace                  0x08000859   Thumb Code     0  libspace.o(.text)
    __user_perthread_libspace                0x08000859   Thumb Code     0  libspace.o(.text)
    BusFault_Handler                         0x08000861   Thumb Code     2  stm32f4xx_it.o(i.BusFault_Handler)
    CmdResp1Error                            0x08000865   Thumb Code    84  sdio_sdcard.o(i.CmdResp1Error)
    Create_task                              0x080008c1   Thumb Code    62  clk_timer.o(i.Create_task)
    DebugMon_Handler                         0x08000905   Thumb Code     2  stm32f4xx_it.o(i.DebugMon_Handler)
    Debug_USART_Config                       0x08000909   Thumb Code   136  usart.o(i.Debug_USART_Config)
    EXTI0_IRQHandler                         0x08000999   Thumb Code    42  gpio.o(i.EXTI0_IRQHandler)
    EXTI_ClearITPendingBit                   0x080009e5   Thumb Code     6  stm32f4xx_exti.o(i.EXTI_ClearITPendingBit)
    EXTI_Init                                0x080009f1   Thumb Code   110  stm32f4xx_exti.o(i.EXTI_Init)
    FSMC_NORSRAMCmd                          0x08000a65   Thumb Code    30  stm32f4xx_fsmc.o(i.FSMC_NORSRAMCmd)
    FSMC_NORSRAMInit                         0x08000a89   Thumb Code   202  stm32f4xx_fsmc.o(i.FSMC_NORSRAMInit)
    GPIO_Init                                0x08000b53   Thumb Code   124  stm32f4xx_gpio.o(i.GPIO_Init)
    GPIO_PinAFConfig                         0x08000bcf   Thumb Code    32  stm32f4xx_gpio.o(i.GPIO_PinAFConfig)
    GPIO_ReadInputDataBit                    0x08000bef   Thumb Code    14  stm32f4xx_gpio.o(i.GPIO_ReadInputDataBit)
    GPIO_ResetBits                           0x08000bfd   Thumb Code     4  stm32f4xx_gpio.o(i.GPIO_ResetBits)
    GPIO_SetBits                             0x08000c01   Thumb Code     4  stm32f4xx_gpio.o(i.GPIO_SetBits)
    HSE_SetSysClock                          0x08000c05   Thumb Code   136  clk_timer.o(i.HSE_SetSysClock)
    HardFault_Handler                        0x08000c99   Thumb Code     2  stm32f4xx_it.o(i.HardFault_Handler)
    Head_state                               0x08000c9d   Thumb Code    32  head.o(i.Head_state)
    Homeview_create                          0x08000cdd   Thumb Code    18  homeview.o(i.Homeview_create)
    Homeview_process                         0x08000cf5   Thumb Code    40  homeview.o(i.Homeview_process)
    LCD_Clear                                0x08000d1d   Thumb Code    40  lcd.o(i.LCD_Clear)
    LCD_Display_Dir                          0x08000d4d   Thumb Code    66  lcd.o(i.LCD_Display_Dir)
    LCD_Fast_DrawPoint                       0x08000d95   Thumb Code    76  lcd.o(i.LCD_Fast_DrawPoint)
    LCD_Fill                                 0x08000de9   Thumb Code    62  lcd.o(i.LCD_Fill)
    LCD_Init                                 0x08000e2d   Thumb Code   442  lcd.o(i.LCD_Init)
    LCD_RD_DATA                              0x08000ff5   Thumb Code    14  lcd.o(i.LCD_RD_DATA)
    LCD_ReadReg                              0x08001009   Thumb Code    20  lcd.o(i.LCD_ReadReg)
    LCD_Scan_Dir                             0x0800101d   Thumb Code   244  lcd.o(i.LCD_Scan_Dir)
    LCD_SetCursor                            0x08001115   Thumb Code    68  lcd.o(i.LCD_SetCursor)
    LCD_ShowChar                             0x0800115d   Thumb Code   202  lcd.o(i.LCD_ShowChar)
    LCD_ShowString                           0x0800123d   Thumb Code    84  lcd.o(i.LCD_ShowString)
    LCD_WR_DATA                              0x08001291   Thumb Code     6  lcd.o(i.LCD_WR_DATA)
    LCD_WR_REG                               0x0800129d   Thumb Code     6  lcd.o(i.LCD_WR_REG)
    LCD_WriteRAM_Prepare                     0x080012a9   Thumb Code    10  lcd.o(i.LCD_WriteRAM_Prepare)
    LCD_WriteReg                             0x080012bd   Thumb Code    10  lcd.o(i.LCD_WriteReg)
    LED_Init                                 0x080012cd   Thumb Code    26  led_driver.o(i.LED_Init)
    LED_switch                               0x080012f1   Thumb Code    32  led_driver.o(i.LED_switch)
    LED_test                                 0x08001315   Thumb Code    54  led_driver.o(i.LED_test)
    MemManage_Handler                        0x0800134b   Thumb Code     2  stm32f4xx_it.o(i.MemManage_Handler)
    Mon_hello                                0x0800134d   Thumb Code    38  mon.o(i.Mon_hello)
    Mon_polling                              0x08001395   Thumb Code    40  mon.o(i.Mon_polling)
    NMI_Handler                              0x080013bd   Thumb Code     2  stm32f4xx_it.o(i.NMI_Handler)
    NVIC_Init                                0x080013e5   Thumb Code    98  misc.o(i.NVIC_Init)
    NVIC_PriorityGroupConfig                 0x0800144d   Thumb Code    10  misc.o(i.NVIC_PriorityGroupConfig)
    PWR_BackupAccessCmd                      0x08001461   Thumb Code     6  stm32f4xx_pwr.o(i.PWR_BackupAccessCmd)
    PendSV_Handler                           0x0800146d   Thumb Code     2  stm32f4xx_it.o(i.PendSV_Handler)
    Popout_create                            0x08001471   Thumb Code    18  popout.o(i.Popout_create)
    Popout_process                           0x08001489   Thumb Code    40  popout.o(i.Popout_process)
    Popout_show                              0x080014b1   Thumb Code    50  popout.o(i.Popout_show)
    RCC_AHB1PeriphClockCmd                   0x080014ed   Thumb Code    22  stm32f4xx_rcc.o(i.RCC_AHB1PeriphClockCmd)
    RCC_AHB2PeriphClockCmd                   0x08001509   Thumb Code    22  stm32f4xx_rcc.o(i.RCC_AHB2PeriphClockCmd)
    RCC_AHB3PeriphClockCmd                   0x08001525   Thumb Code    22  stm32f4xx_rcc.o(i.RCC_AHB3PeriphClockCmd)
    RCC_APB1PeriphClockCmd                   0x08001541   Thumb Code    22  stm32f4xx_rcc.o(i.RCC_APB1PeriphClockCmd)
    RCC_APB1PeriphResetCmd                   0x0800155d   Thumb Code    22  stm32f4xx_rcc.o(i.RCC_APB1PeriphResetCmd)
    RCC_APB2PeriphClockCmd                   0x08001579   Thumb Code    22  stm32f4xx_rcc.o(i.RCC_APB2PeriphClockCmd)
    RCC_APB2PeriphResetCmd                   0x08001595   Thumb Code    22  stm32f4xx_rcc.o(i.RCC_APB2PeriphResetCmd)
    RCC_GetClocksFreq                        0x080015b1   Thumb Code   148  stm32f4xx_rcc.o(i.RCC_GetClocksFreq)
    RCC_GetFlagStatus                        0x08001651   Thumb Code    50  stm32f4xx_rcc.o(i.RCC_GetFlagStatus)
    RCC_GetSYSCLKSource                      0x08001689   Thumb Code    10  stm32f4xx_rcc.o(i.RCC_GetSYSCLKSource)
    RCC_HCLKConfig                           0x08001699   Thumb Code    14  stm32f4xx_rcc.o(i.RCC_HCLKConfig)
    RCC_HSEConfig                            0x080016ad   Thumb Code    10  stm32f4xx_rcc.o(i.RCC_HSEConfig)
    RCC_LSEConfig                            0x080016bd   Thumb Code    28  stm32f4xx_rcc.o(i.RCC_LSEConfig)
    RCC_PCLK1Config                          0x080016dd   Thumb Code    14  stm32f4xx_rcc.o(i.RCC_PCLK1Config)
    RCC_PCLK2Config                          0x080016f1   Thumb Code    16  stm32f4xx_rcc.o(i.RCC_PCLK2Config)
    RCC_PLLCmd                               0x08001705   Thumb Code     6  stm32f4xx_rcc.o(i.RCC_PLLCmd)
    RCC_PLLConfig                            0x08001711   Thumb Code    32  stm32f4xx_rcc.o(i.RCC_PLLConfig)
    RCC_RTCCLKCmd                            0x08001735   Thumb Code     6  stm32f4xx_rcc.o(i.RCC_RTCCLKCmd)
    RCC_RTCCLKConfig                         0x08001741   Thumb Code    40  stm32f4xx_rcc.o(i.RCC_RTCCLKConfig)
    RCC_SYSCLKConfig                         0x08001771   Thumb Code    14  stm32f4xx_rcc.o(i.RCC_SYSCLKConfig)
    RCC_WaitForHSEStartUp                    0x08001785   Thumb Code    48  stm32f4xx_rcc.o(i.RCC_WaitForHSEStartUp)
    RNG_Cmd                                  0x080017b5   Thumb Code    26  stm32f4xx_rng.o(i.RNG_Cmd)
    RNG_GetFlagStatus                        0x080017d5   Thumb Code    16  stm32f4xx_rng.o(i.RNG_GetFlagStatus)
    RNG_Init                                 0x080017e9   Thumb Code    68  sys.o(i.RNG_Init)
    RTC_Alarm_IRQHandler                     0x0800184d   Thumb Code    40  rtc.o(i.RTC_Alarm_IRQHandler)
    RTC_ClearFlag                            0x080018b9   Thumb Code    22  stm32f4xx_rtc.o(i.RTC_ClearFlag)
    RTC_EnterInitMode                        0x080018d5   Thumb Code    62  stm32f4xx_rtc.o(i.RTC_EnterInitMode)
    RTC_ExitInitMode                         0x08001919   Thumb Code    12  stm32f4xx_rtc.o(i.RTC_ExitInitMode)
    RTC_GetDate                              0x08001929   Thumb Code    64  stm32f4xx_rtc.o(i.RTC_GetDate)
    RTC_GetFlagStatus                        0x08001971   Thumb Code    20  stm32f4xx_rtc.o(i.RTC_GetFlagStatus)
    RTC_GetTime                              0x0800198d   Thumb Code    68  stm32f4xx_rtc.o(i.RTC_GetTime)
    RTC_Init                                 0x080019d9   Thumb Code    74  stm32f4xx_rtc.o(i.RTC_Init)
    RTC_ReadBackupRegister                   0x08001a29   Thumb Code    16  stm32f4xx_rtc.o(i.RTC_ReadBackupRegister)
    RTC_SetDate                              0x08001a3d   Thumb Code   156  stm32f4xx_rtc.o(i.RTC_SetDate)
    RTC_SetTime                              0x08001ae1   Thumb Code   160  stm32f4xx_rtc.o(i.RTC_SetTime)
    RTC_Set_Date                             0x08001b89   Thumb Code    28  rtc.o(i.RTC_Set_Date)
    RTC_Set_Time                             0x08001ba5   Thumb Code    28  rtc.o(i.RTC_Set_Time)
    RTC_WKUP_IRQHandler                      0x08001bc1   Thumb Code    58  rtc.o(i.RTC_WKUP_IRQHandler)
    RTC_WaitForSynchro                       0x08001c09   Thumb Code    72  stm32f4xx_rtc.o(i.RTC_WaitForSynchro)
    RTC_WriteBackupRegister                  0x08001c55   Thumb Code    16  stm32f4xx_rtc.o(i.RTC_WriteBackupRegister)
    SDIO_ClearFlag                           0x08001c69   Thumb Code     6  stm32f4xx_sdio.o(i.SDIO_ClearFlag)
    SDIO_GetFlagStatus                       0x08001c75   Thumb Code    16  stm32f4xx_sdio.o(i.SDIO_GetFlagStatus)
    SDIO_IRQHandler                          0x08001c89   Thumb Code     4  sdio_sdcard.o(i.SDIO_IRQHandler)
    SDIO_SendCommand                         0x08001c8d   Thumb Code    36  stm32f4xx_sdio.o(i.SDIO_SendCommand)
    SD_ProcessIRQSrc                         0x08001cb5   Thumb Code   230  sdio_sdcard.o(i.SD_ProcessIRQSrc)
    SPI1_ReadWriteByte                       0x08001da9   Thumb Code    48  spi.o(i.SPI1_ReadWriteByte)
    SPI_Cmd                                  0x08001ddd   Thumb Code    24  stm32f4xx_spi.o(i.SPI_Cmd)
    SPI_I2S_GetFlagStatus                    0x08001df5   Thumb Code    14  stm32f4xx_spi.o(i.SPI_I2S_GetFlagStatus)
    SPI_I2S_ReceiveData                      0x08001e03   Thumb Code     4  stm32f4xx_spi.o(i.SPI_I2S_ReceiveData)
    SPI_I2S_SendData                         0x08001e07   Thumb Code     4  stm32f4xx_spi.o(i.SPI_I2S_SendData)
    SPI_Init                                 0x08001e0b   Thumb Code    56  stm32f4xx_spi.o(i.SPI_Init)
    SVC_Handler                              0x08001e43   Thumb Code     2  stm32f4xx_it.o(i.SVC_Handler)
    SYSCFG_EXTILineConfig                    0x08001e45   Thumb Code    38  stm32f4xx_syscfg.o(i.SYSCFG_EXTILineConfig)
    Send_message                             0x08001e71   Thumb Code    18  view.o(i.Send_message)
    Setup_show                               0x08001f45   Thumb Code    96  setupview.o(i.Setup_show)
    Setupview_create                         0x08001fad   Thumb Code    18  setupview.o(i.Setupview_create)
    Setupview_process                        0x08001fc5   Thumb Code    40  setupview.o(i.Setupview_process)
    SysTick_Handler                          0x08001fed   Thumb Code    54  clk_timer.o(i.SysTick_Handler)
    SysTick_init                             0x0800202d   Thumb Code    54  clk_timer.o(i.SysTick_init)
    SystemInit                               0x0800206d   Thumb Code    74  system_stm32f4xx.o(i.SystemInit)
    Touch_process                            0x08002165   Thumb Code    76  setupview.o(i.Touch_process)
    USART1_IRQHandler                        0x080021b5   Thumb Code   108  usart.o(i.USART1_IRQHandler)
    USART_Cmd                                0x08002235   Thumb Code    24  stm32f4xx_usart.o(i.USART_Cmd)
    USART_GetFlagStatus                      0x0800224d   Thumb Code    14  stm32f4xx_usart.o(i.USART_GetFlagStatus)
    USART_GetITStatus                        0x0800225b   Thumb Code    64  stm32f4xx_usart.o(i.USART_GetITStatus)
    USART_ITConfig                           0x0800229b   Thumb Code    54  stm32f4xx_usart.o(i.USART_ITConfig)
    USART_Init                               0x080022d1   Thumb Code   180  stm32f4xx_usart.o(i.USART_Init)
    USART_ReceiveData                        0x0800238d   Thumb Code     8  stm32f4xx_usart.o(i.USART_ReceiveData)
    USART_SendData                           0x08002395   Thumb Code     8  stm32f4xx_usart.o(i.USART_SendData)
    UsageFault_Handler                       0x0800239d   Thumb Code     2  stm32f4xx_it.o(i.UsageFault_Handler)
    Usart_SendByte                           0x0800239f   Thumb Code    24  usart.o(i.Usart_SendByte)
    Usart_SendString                         0x080023b7   Thumb Code    38  usart.o(i.Usart_SendString)
    View_create                              0x080023dd   Thumb Code    22  view.o(i.View_create)
    View_destroy                             0x080023fd   Thumb Code    24  view.o(i.View_destroy)
    View_init                                0x08002419   Thumb Code     6  view.o(i.View_init)
    View_switch                              0x08002421   Thumb Code    40  view.o(i.View_switch)
    W25QXX_Init                              0x08002451   Thumb Code    62  w25q16.o(i.W25QXX_Init)
    W25QXX_ReadID                            0x080024ad   Thumb Code    74  w25q16.o(i.W25QXX_ReadID)
    WWDG_ClearFlag                           0x080024fd   Thumb Code     8  stm32f4xx_wwdg.o(i.WWDG_ClearFlag)
    WWDG_DeInit                              0x08002509   Thumb Code    24  stm32f4xx_wwdg.o(i.WWDG_DeInit)
    WWDG_IRQHandler                          0x08002521   Thumb Code    16  wwdg.o(i.WWDG_IRQHandler)
    WWDG_SetCounter                          0x08002541   Thumb Code    10  stm32f4xx_wwdg.o(i.WWDG_SetCounter)
    WWDG_feed                                0x08002551   Thumb Code     6  wwdg.o(i.WWDG_feed)
    _sys_exit                                0x08002557   Thumb Code     2  usart.o(i._sys_exit)
    check_runout                             0x08002559   Thumb Code    48  clk_timer.o(i.check_runout)
    check_tick                               0x0800258d   Thumb Code     6  clk_timer.o(i.check_tick)
    check_timeout                            0x08002599   Thumb Code    38  clk_timer.o(i.check_timeout)
    command_handler                          0x080025c5   Thumb Code    86  mon.o(i.command_handler)
    deal_overflow                            0x08002635   Thumb Code    22  clk_timer.o(i.deal_overflow)
    delay_ms                                 0x08002651   Thumb Code    24  clk_timer.o(i.delay_ms)
    delay_us                                 0x0800266d   Thumb Code    12  clk_timer.o(i.delay_us)
    flash_spi_init                           0x08002679   Thumb Code   184  spi.o(i.flash_spi_init)
    fputc                                    0x0800273d   Thumb Code    16  usart.o(i.fputc)
    get_mon_buf                              0x08002751   Thumb Code    24  usart.o(i.get_mon_buf)
    get_time                                 0x0800276d   Thumb Code    64  rtc.o(i.get_time)
    gpio_init                                0x080027ad   Thumb Code    94  gpio.o(i.gpio_init)
    gpio_out                                 0x08002815   Thumb Code    12  gpio.o(i.gpio_out)
    home_show                                0x08002821   Thumb Code    96  homeview.o(i.home_show)
    insert_execute                           0x0800288d   Thumb Code     8  clk_timer.o(i.insert_execute)
    insert_task                              0x08002895   Thumb Code    62  clk_timer.o(i.insert_task)
    insert_task_list                         0x08002901   Thumb Code   116  clk_timer.o(i.insert_task_list)
    insert_task_tail                         0x0800299d   Thumb Code    28  clk_timer.o(i.insert_task_tail)
    io_interrupt_init                        0x080029b9   Thumb Code    60  gpio.o(i.io_interrupt_init)
    key0_task                                0x080029f5   Thumb Code    86  keyboard_driver.o(i.key0_task)
    key1_task                                0x08002a7d   Thumb Code    86  keyboard_driver.o(i.key1_task)
    key_init                                 0x08002b05   Thumb Code    54  keyboard_driver.o(i.key_init)
    key_task_init                            0x08002b49   Thumb Code    20  keyboard_driver.o(i.key_task_init)
    lcd_soft_init                            0x08002b61   Thumb Code  4262  lcd.o(i.lcd_soft_init)
    main                                     0x08003c0d   Thumb Code    48  main.o(i.main)
    mon_flag_rw                              0x08003c69   Thumb Code    12  usart.o(i.mon_flag_rw)
    ms_10                                    0x08003c79   Thumb Code    20  clk_timer.o(i.ms_10)
    ms_100                                   0x08003c91   Thumb Code    20  clk_timer.o(i.ms_100)
    my_free                                  0x08003ca9   Thumb Code   104  head.o(i.my_free)
    my_head_init                             0x08003d39   Thumb Code    56  head.o(i.my_head_init)
    my_malloc                                0x08003d75   Thumb Code    86  head.o(i.my_malloc)
    polling                                  0x08003df1   Thumb Code    46  clk_timer.o(i.polling)
    reset_data                               0x08003e25   Thumb Code     8  usart.o(i.reset_data)
    reset_mon_buf                            0x08003e31   Thumb Code     8  usart.o(i.reset_mon_buf)
    rtc_init                                 0x08003e3d   Thumb Code   136  rtc.o(i.rtc_init)
    search_arg                               0x08003ec5   Thumb Code    86  mon.o(i.search_arg)
    search_command                           0x08003f2d   Thumb Code    58  mon.o(i.search_command)
    search_len                               0x08003f6d   Thumb Code    32  mon.o(i.search_len)
    send_touch                               0x08003f8d   Thumb Code    38  mon.o(i.send_touch)
    sys_init                                 0x08003fd1   Thumb Code    60  main.o(i.sys_init)
    task_init                                0x0800400d   Thumb Code     4  main.o(i.task_init)
    timer_test                               0x08004011   Thumb Code    66  mon.o(i.timer_test)
    timer_test_func                          0x08004081   Thumb Code    18  mon.o(i.timer_test_func)
    to_int                                   0x080040a1   Thumb Code    56  mon.o(i.to_int)
    _fp_init                                 0x080040f5   Thumb Code    10  fpinit.o(x$fpl$fpinit)
    __fplib_config_fpu_vfp                   0x080040fd   Thumb Code     0  fpinit.o(x$fpl$fpinit)
    __fplib_config_pureend_doubles           0x080040fd   Thumb Code     0  fpinit.o(x$fpl$fpinit)
    asc2_1206                                0x080040fe   Data        1140  lcd.o(.constdata)
    asc2_1608                                0x08004572   Data        1520  lcd.o(.constdata)
    asc2_2412                                0x08004b62   Data        3420  lcd.o(.constdata)
    Region$$Table$$Base                      0x08005964   Number         0  anon$$obj.o(Region$$Table)
    Region$$Table$$Limit                     0x08005984   Number         0  anon$$obj.o(Region$$Table)
    SystemCoreClock                          0x20000000   Data           4  system_stm32f4xx.o(.data)
    AHBPrescTable                            0x20000004   Data          16  system_stm32f4xx.o(.data)
    task_10ms                                0x20000030   Data           8  clk_timer.o(.data)
    task_100ms                               0x20000038   Data           8  clk_timer.o(.data)
    execute_task                             0x20000040   Data           8  clk_timer.o(.data)
    overflow_task                            0x20000048   Data           8  clk_timer.o(.data)
    BYTE_20                                  0x20000058   Data          16  head.o(.data)
    BYTE_40                                  0x20000068   Data          16  head.o(.data)
    BYTE_128                                 0x20000078   Data          16  head.o(.data)
    sector_addr                              0x20000088   Data          20  head.o(.data)
    BYTE_512                                 0x2000009c   Data          16  head.o(.data)
    __stdout                                 0x200000ac   Data           4  usart.o(.data)
    TransferEnd                              0x200000b3   Data           1  sdio_sdcard.o(.data)
    TransferError                            0x200000b8   Data           4  sdio_sdcard.o(.data)
    tempbuff                                 0x200000bc   Data           4  sdio_sdcard.o(.data)
    key_1_status                             0x200000c0   Data           1  keyboard_driver.o(.data)
    key_1_count                              0x200000c1   Data           1  keyboard_driver.o(.data)
    key_1_press                              0x200000c2   Data           1  keyboard_driver.o(.data)
    key_0_status                             0x200000c3   Data           1  keyboard_driver.o(.data)
    key_0_count                              0x200000c4   Data           1  keyboard_driver.o(.data)
    key_0_press                              0x200000c5   Data           1  keyboard_driver.o(.data)
    key_1_task                               0x200000c8   Data          20  keyboard_driver.o(.data)
    key_0_task                               0x200000dc   Data          20  keyboard_driver.o(.data)
    mon_flag                                 0x200000f0   Data           1  mon.o(.data)
    command_list                             0x200000f4   Data          40  mon.o(.data)
    W25QXX_TYPE                              0x2000011c   Data           2  w25q16.o(.data)
    POINT_COLOR                              0x2000011e   Data           2  lcd.o(.data)
    BACK_COLOR                               0x20000120   Data           2  lcd.o(.data)
    view_layer                               0x20000124   Data           1  view.o(.data)
    call_back_func                           0x20000128   Data           4  view.o(.data)
    task_pool                                0x2000012c   Data          32  clk_timer.o(.bss)
    temp_config                              0x2000014c   Data          24  gpio.o(.bss)
    head_addr                                0x20000164   Data        2988  head.o(.bss)
    SDIO_InitStructure                       0x20000d58   Data          24  sdio_sdcard.o(.bss)
    SDIO_CmdInitStructure                    0x20000d70   Data          20  sdio_sdcard.o(.bss)
    SDIO_DataInitStructure                   0x20000d84   Data          24  sdio_sdcard.o(.bss)
    SDCardInfo                               0x20000dc0   Data          88  sdio_sdcard.o(.bss)
    SDIO_DATA_BUFFER                         0x20000e18   Data         512  sdio_sdcard.o(.bss)
    lcddev                                   0x20001018   Data          14  lcd.o(.bss)
    process_contianer                        0x20001028   Data          12  view.o(.bss)
    __libspace_start                         0x20001034   Data          96  libspace.o(.bss)
    __temporary_stack_top$libspace           0x20001094   Data           0  libspace.o(.bss)



==============================================================================

Memory Map of the image

  Image Entry point : 0x08000189

  Load Region LR_IROM1 (Base: 0x08000000, Size: 0x00005ab0, Max: 0x00080000, ABSOLUTE, COMPRESSED[0x00005a0c])

    Execution Region ER_IROM1 (Exec base: 0x08000000, Load base: 0x08000000, Size: 0x00005984, Max: 0x00080000, ABSOLUTE)

    Exec Addr    Load Addr    Size         Type   Attr      Idx    E Section Name        Object

    0x08000000   0x08000000   0x00000188   Data   RO          322    RESET               startup_stm32f40_41xxx.o
    0x08000188   0x08000188   0x00000008   Code   RO         5128  * !!!main             c_w.l(__main.o)
    0x08000190   0x08000190   0x00000034   Code   RO         5329    !!!scatter          c_w.l(__scatter.o)
    0x080001c4   0x080001c4   0x0000005a   Code   RO         5327    !!dczerorl2         c_w.l(__dczerorl2.o)
    0x0800021e   0x0800021e   0x00000002   PAD
    0x08000220   0x08000220   0x0000001c   Code   RO         5331    !!handler_zi        c_w.l(__scatter_zi.o)
    0x0800023c   0x0800023c   0x00000000   Code   RO         5113    .ARM.Collect$$_printf_percent$$00000000  c_w.l(_printf_percent.o)
    0x0800023c   0x0800023c   0x00000006   Code   RO         5111    .ARM.Collect$$_printf_percent$$00000009  c_w.l(_printf_d.o)
    0x08000242   0x08000242   0x00000006   Code   RO         5110    .ARM.Collect$$_printf_percent$$0000000C  c_w.l(_printf_x.o)
    0x08000248   0x08000248   0x00000006   Code   RO         5109    .ARM.Collect$$_printf_percent$$00000014  c_w.l(_printf_s.o)
    0x0800024e   0x0800024e   0x00000004   Code   RO         5153    .ARM.Collect$$_printf_percent$$00000017  c_w.l(_printf_percent_end.o)
    0x08000252   0x08000252   0x00000002   Code   RO         5199    .ARM.Collect$$libinit$$00000000  c_w.l(libinit.o)
    0x08000254   0x08000254   0x00000004   Code   RO         5209    .ARM.Collect$$libinit$$00000001  c_w.l(libinit2.o)
    0x08000258   0x08000258   0x00000000   Code   RO         5212    .ARM.Collect$$libinit$$00000004  c_w.l(libinit2.o)
    0x08000258   0x08000258   0x00000000   Code   RO         5215    .ARM.Collect$$libinit$$0000000A  c_w.l(libinit2.o)
    0x08000258   0x08000258   0x00000000   Code   RO         5217    .ARM.Collect$$libinit$$0000000C  c_w.l(libinit2.o)
    0x08000258   0x08000258   0x00000000   Code   RO         5219    .ARM.Collect$$libinit$$0000000E  c_w.l(libinit2.o)
    0x08000258   0x08000258   0x00000000   Code   RO         5222    .ARM.Collect$$libinit$$00000011  c_w.l(libinit2.o)
    0x08000258   0x08000258   0x00000000   Code   RO         5224    .ARM.Collect$$libinit$$00000013  c_w.l(libinit2.o)
    0x08000258   0x08000258   0x00000000   Code   RO         5226    .ARM.Collect$$libinit$$00000015  c_w.l(libinit2.o)
    0x08000258   0x08000258   0x00000000   Code   RO         5228    .ARM.Collect$$libinit$$00000017  c_w.l(libinit2.o)
    0x08000258   0x08000258   0x00000000   Code   RO         5230    .ARM.Collect$$libinit$$00000019  c_w.l(libinit2.o)
    0x08000258   0x08000258   0x00000000   Code   RO         5232    .ARM.Collect$$libinit$$0000001B  c_w.l(libinit2.o)
    0x08000258   0x08000258   0x00000000   Code   RO         5234    .ARM.Collect$$libinit$$0000001D  c_w.l(libinit2.o)
    0x08000258   0x08000258   0x00000000   Code   RO         5236    .ARM.Collect$$libinit$$0000001F  c_w.l(libinit2.o)
    0x08000258   0x08000258   0x00000000   Code   RO         5238    .ARM.Collect$$libinit$$00000021  c_w.l(libinit2.o)
    0x08000258   0x08000258   0x00000000   Code   RO         5240    .ARM.Collect$$libinit$$00000023  c_w.l(libinit2.o)
    0x08000258   0x08000258   0x00000000   Code   RO         5242    .ARM.Collect$$libinit$$00000025  c_w.l(libinit2.o)
    0x08000258   0x08000258   0x00000000   Code   RO         5246    .ARM.Collect$$libinit$$0000002C  c_w.l(libinit2.o)
    0x08000258   0x08000258   0x00000000   Code   RO         5248    .ARM.Collect$$libinit$$0000002E  c_w.l(libinit2.o)
    0x08000258   0x08000258   0x00000000   Code   RO         5250    .ARM.Collect$$libinit$$00000030  c_w.l(libinit2.o)
    0x08000258   0x08000258   0x00000000   Code   RO         5252    .ARM.Collect$$libinit$$00000032  c_w.l(libinit2.o)
    0x08000258   0x08000258   0x00000002   Code   RO         5253    .ARM.Collect$$libinit$$00000033  c_w.l(libinit2.o)
    0x0800025a   0x0800025a   0x00000002   Code   RO         5281    .ARM.Collect$$libshutdown$$00000000  c_w.l(libshutdown.o)
    0x0800025c   0x0800025c   0x00000000   Code   RO         5293    .ARM.Collect$$libshutdown$$00000002  c_w.l(libshutdown2.o)
    0x0800025c   0x0800025c   0x00000000   Code   RO         5295    .ARM.Collect$$libshutdown$$00000004  c_w.l(libshutdown2.o)
    0x0800025c   0x0800025c   0x00000000   Code   RO         5298    .ARM.Collect$$libshutdown$$00000007  c_w.l(libshutdown2.o)
    0x0800025c   0x0800025c   0x00000000   Code   RO         5301    .ARM.Collect$$libshutdown$$0000000A  c_w.l(libshutdown2.o)
    0x0800025c   0x0800025c   0x00000000   Code   RO         5303    .ARM.Collect$$libshutdown$$0000000C  c_w.l(libshutdown2.o)
    0x0800025c   0x0800025c   0x00000000   Code   RO         5306    .ARM.Collect$$libshutdown$$0000000F  c_w.l(libshutdown2.o)
    0x0800025c   0x0800025c   0x00000002   Code   RO         5307    .ARM.Collect$$libshutdown$$00000010  c_w.l(libshutdown2.o)
    0x0800025e   0x0800025e   0x00000000   Code   RO         5144    .ARM.Collect$$rtentry$$00000000  c_w.l(__rtentry.o)
    0x0800025e   0x0800025e   0x00000000   Code   RO         5162    .ARM.Collect$$rtentry$$00000002  c_w.l(__rtentry2.o)
    0x0800025e   0x0800025e   0x00000006   Code   RO         5174    .ARM.Collect$$rtentry$$00000004  c_w.l(__rtentry4.o)
    0x08000264   0x08000264   0x00000000   Code   RO         5164    .ARM.Collect$$rtentry$$00000009  c_w.l(__rtentry2.o)
    0x08000264   0x08000264   0x00000004   Code   RO         5165    .ARM.Collect$$rtentry$$0000000A  c_w.l(__rtentry2.o)
    0x08000268   0x08000268   0x00000000   Code   RO         5167    .ARM.Collect$$rtentry$$0000000C  c_w.l(__rtentry2.o)
    0x08000268   0x08000268   0x00000008   Code   RO         5168    .ARM.Collect$$rtentry$$0000000D  c_w.l(__rtentry2.o)
    0x08000270   0x08000270   0x00000002   Code   RO         5203    .ARM.Collect$$rtexit$$00000000  c_w.l(rtexit.o)
    0x08000272   0x08000272   0x00000000   Code   RO         5255    .ARM.Collect$$rtexit$$00000002  c_w.l(rtexit2.o)
    0x08000272   0x08000272   0x00000004   Code   RO         5256    .ARM.Collect$$rtexit$$00000003  c_w.l(rtexit2.o)
    0x08000276   0x08000276   0x00000006   Code   RO         5257    .ARM.Collect$$rtexit$$00000004  c_w.l(rtexit2.o)
    0x0800027c   0x0800027c   0x00000040   Code   RO          323    .text               startup_stm32f40_41xxx.o
    0x080002bc   0x080002bc   0x00000002   Code   RO         5054    .text               c_w.l(use_no_semi_2.o)
    0x080002be   0x080002be   0x00000002   PAD
    0x080002c0   0x080002c0   0x00000018   Code   RO         5060    .text               c_w.l(noretval__2printf.o)
    0x080002d8   0x080002d8   0x00000068   Code   RO         5062    .text               c_w.l(__printf.o)
    0x08000340   0x08000340   0x00000052   Code   RO         5064    .text               c_w.l(_printf_str.o)
    0x08000392   0x08000392   0x00000002   PAD
    0x08000394   0x08000394   0x00000078   Code   RO         5066    .text               c_w.l(_printf_dec.o)
    0x0800040c   0x0800040c   0x00000058   Code   RO         5071    .text               c_w.l(_printf_hex_int.o)
    0x08000464   0x08000464   0x0000003e   Code   RO         5114    .text               c_w.l(strlen.o)
    0x080004a2   0x080004a2   0x00000096   Code   RO         5116    .text               c_w.l(strncmp.o)
    0x08000538   0x08000538   0x0000008a   Code   RO         5118    .text               c_w.l(rt_memcpy_v6.o)
    0x080005c2   0x080005c2   0x00000044   Code   RO         5122    .text               c_w.l(rt_memclr.o)
    0x08000606   0x08000606   0x0000004e   Code   RO         5124    .text               c_w.l(rt_memclr_w.o)
    0x08000654   0x08000654   0x00000006   Code   RO         5126    .text               c_w.l(heapauxi.o)
    0x0800065a   0x0800065a   0x00000002   Code   RO         5142    .text               c_w.l(use_no_semi.o)
    0x0800065c   0x0800065c   0x000000b2   Code   RO         5147    .text               c_w.l(_printf_intcommon.o)
    0x0800070e   0x0800070e   0x0000002c   Code   RO         5149    .text               c_w.l(_printf_char.o)
    0x0800073a   0x0800073a   0x00000002   PAD
    0x0800073c   0x0800073c   0x00000024   Code   RO         5151    .text               c_w.l(_printf_char_file.o)
    0x08000760   0x08000760   0x00000064   Code   RO         5154    .text               c_w.l(rt_memcpy_w.o)
    0x080007c4   0x080007c4   0x00000030   Code   RO         5180    .text               c_w.l(_printf_char_common.o)
    0x080007f4   0x080007f4   0x00000008   Code   RO         5182    .text               c_w.l(ferror.o)
    0x080007fc   0x080007fc   0x0000004a   Code   RO         5186    .text               c_w.l(sys_stackheap_outer.o)
    0x08000846   0x08000846   0x00000012   Code   RO         5192    .text               c_w.l(exit.o)
    0x08000858   0x08000858   0x00000008   Code   RO         5200    .text               c_w.l(libspace.o)
    0x08000860   0x08000860   0x00000002   Code   RO          194    i.BusFault_Handler  stm32f4xx_it.o
    0x08000862   0x08000862   0x00000002   PAD
    0x08000864   0x08000864   0x0000005c   Code   RO         3454    i.CmdResp1Error     sdio_sdcard.o
    0x080008c0   0x080008c0   0x00000044   Code   RO         2909    i.Create_task       clk_timer.o
    0x08000904   0x08000904   0x00000002   Code   RO          195    i.DebugMon_Handler  stm32f4xx_it.o
    0x08000906   0x08000906   0x00000002   PAD
    0x08000908   0x08000908   0x00000090   Code   RO         3319    i.Debug_USART_Config  usart.o
    0x08000998   0x08000998   0x0000004c   Code   RO         3054    i.EXTI0_IRQHandler  gpio.o
    0x080009e4   0x080009e4   0x0000000c   Code   RO          521    i.EXTI_ClearITPendingBit  stm32f4xx_exti.o
    0x080009f0   0x080009f0   0x00000074   Code   RO          526    i.EXTI_Init         stm32f4xx_exti.o
    0x08000a64   0x08000a64   0x00000024   Code   RO          593    i.FSMC_NORSRAMCmd   stm32f4xx_fsmc.o
    0x08000a88   0x08000a88   0x000000ca   Code   RO          595    i.FSMC_NORSRAMInit  stm32f4xx_fsmc.o
    0x08000b52   0x08000b52   0x0000007c   Code   RO          714    i.GPIO_Init         stm32f4xx_gpio.o
    0x08000bce   0x08000bce   0x00000020   Code   RO          715    i.GPIO_PinAFConfig  stm32f4xx_gpio.o
    0x08000bee   0x08000bee   0x0000000e   Code   RO          718    i.GPIO_ReadInputDataBit  stm32f4xx_gpio.o
    0x08000bfc   0x08000bfc   0x00000004   Code   RO          721    i.GPIO_ResetBits    stm32f4xx_gpio.o
    0x08000c00   0x08000c00   0x00000004   Code   RO          722    i.GPIO_SetBits      stm32f4xx_gpio.o
    0x08000c04   0x08000c04   0x00000094   Code   RO         2910    i.HSE_SetSysClock   clk_timer.o
    0x08000c98   0x08000c98   0x00000002   Code   RO          196    i.HardFault_Handler  stm32f4xx_it.o
    0x08000c9a   0x08000c9a   0x00000002   PAD
    0x08000c9c   0x08000c9c   0x00000040   Code   RO         3115    i.Head_state        head.o
    0x08000cdc   0x08000cdc   0x00000018   Code   RO         4863    i.Homeview_create   homeview.o
    0x08000cf4   0x08000cf4   0x00000028   Code   RO         4864    i.Homeview_process  homeview.o
    0x08000d1c   0x08000d1c   0x00000030   Code   RO         4545    i.LCD_Clear         lcd.o
    0x08000d4c   0x08000d4c   0x00000048   Code   RO         4549    i.LCD_Display_Dir   lcd.o
    0x08000d94   0x08000d94   0x00000054   Code   RO         4554    i.LCD_Fast_DrawPoint  lcd.o
    0x08000de8   0x08000de8   0x00000044   Code   RO         4555    i.LCD_Fill          lcd.o
    0x08000e2c   0x08000e2c   0x000001c8   Code   RO         4556    i.LCD_Init          lcd.o
    0x08000ff4   0x08000ff4   0x00000014   Code   RO         4558    i.LCD_RD_DATA       lcd.o
    0x08001008   0x08001008   0x00000014   Code   RO         4560    i.LCD_ReadReg       lcd.o
    0x0800101c   0x0800101c   0x000000f8   Code   RO         4562    i.LCD_Scan_Dir      lcd.o
    0x08001114   0x08001114   0x00000048   Code   RO         4563    i.LCD_SetCursor     lcd.o
    0x0800115c   0x0800115c   0x000000e0   Code   RO         4565    i.LCD_ShowChar      lcd.o
    0x0800123c   0x0800123c   0x00000054   Code   RO         4567    i.LCD_ShowString    lcd.o
    0x08001290   0x08001290   0x0000000c   Code   RO         4569    i.LCD_WR_DATA       lcd.o
    0x0800129c   0x0800129c   0x0000000c   Code   RO         4570    i.LCD_WR_REG        lcd.o
    0x080012a8   0x080012a8   0x00000014   Code   RO         4572    i.LCD_WriteRAM_Prepare  lcd.o
    0x080012bc   0x080012bc   0x00000010   Code   RO         4573    i.LCD_WriteReg      lcd.o
    0x080012cc   0x080012cc   0x00000024   Code   RO         3784    i.LED_Init          led_driver.o
    0x080012f0   0x080012f0   0x00000024   Code   RO         3785    i.LED_switch        led_driver.o
    0x08001314   0x08001314   0x00000036   Code   RO         3786    i.LED_test          led_driver.o
    0x0800134a   0x0800134a   0x00000002   Code   RO          197    i.MemManage_Handler  stm32f4xx_it.o
    0x0800134c   0x0800134c   0x00000048   Code   RO         3825    i.Mon_hello         mon.o
    0x08001394   0x08001394   0x00000028   Code   RO         3826    i.Mon_polling       mon.o
    0x080013bc   0x080013bc   0x00000002   Code   RO          198    i.NMI_Handler       stm32f4xx_it.o
    0x080013be   0x080013be   0x00000026   Code   RO         3320    i.NVIC_Configuration  usart.o
    0x080013e4   0x080013e4   0x00000068   Code   RO          329    i.NVIC_Init         misc.o
    0x0800144c   0x0800144c   0x00000014   Code   RO          330    i.NVIC_PriorityGroupConfig  misc.o
    0x08001460   0x08001460   0x0000000c   Code   RO          811    i.PWR_BackupAccessCmd  stm32f4xx_pwr.o
    0x0800146c   0x0800146c   0x00000002   Code   RO          199    i.PendSV_Handler    stm32f4xx_it.o
    0x0800146e   0x0800146e   0x00000002   PAD
    0x08001470   0x08001470   0x00000018   Code   RO         4905    i.Popout_create     popout.o
    0x08001488   0x08001488   0x00000028   Code   RO         4906    i.Popout_process    popout.o
    0x080014b0   0x080014b0   0x0000003c   Code   RO         4907    i.Popout_show       popout.o
    0x080014ec   0x080014ec   0x0000001c   Code   RO          933    i.RCC_AHB1PeriphClockCmd  stm32f4xx_rcc.o
    0x08001508   0x08001508   0x0000001c   Code   RO          936    i.RCC_AHB2PeriphClockCmd  stm32f4xx_rcc.o
    0x08001524   0x08001524   0x0000001c   Code   RO          939    i.RCC_AHB3PeriphClockCmd  stm32f4xx_rcc.o
    0x08001540   0x08001540   0x0000001c   Code   RO          942    i.RCC_APB1PeriphClockCmd  stm32f4xx_rcc.o
    0x0800155c   0x0800155c   0x0000001c   Code   RO          944    i.RCC_APB1PeriphResetCmd  stm32f4xx_rcc.o
    0x08001578   0x08001578   0x0000001c   Code   RO          945    i.RCC_APB2PeriphClockCmd  stm32f4xx_rcc.o
    0x08001594   0x08001594   0x0000001c   Code   RO          947    i.RCC_APB2PeriphResetCmd  stm32f4xx_rcc.o
    0x080015b0   0x080015b0   0x000000a0   Code   RO          954    i.RCC_GetClocksFreq  stm32f4xx_rcc.o
    0x08001650   0x08001650   0x00000038   Code   RO          955    i.RCC_GetFlagStatus  stm32f4xx_rcc.o
    0x08001688   0x08001688   0x00000010   Code   RO          957    i.RCC_GetSYSCLKSource  stm32f4xx_rcc.o
    0x08001698   0x08001698   0x00000014   Code   RO          958    i.RCC_HCLKConfig    stm32f4xx_rcc.o
    0x080016ac   0x080016ac   0x00000010   Code   RO          959    i.RCC_HSEConfig     stm32f4xx_rcc.o
    0x080016bc   0x080016bc   0x00000020   Code   RO          963    i.RCC_LSEConfig     stm32f4xx_rcc.o
    0x080016dc   0x080016dc   0x00000014   Code   RO          969    i.RCC_PCLK1Config   stm32f4xx_rcc.o
    0x080016f0   0x080016f0   0x00000014   Code   RO          970    i.RCC_PCLK2Config   stm32f4xx_rcc.o
    0x08001704   0x08001704   0x0000000c   Code   RO          971    i.RCC_PLLCmd        stm32f4xx_rcc.o
    0x08001710   0x08001710   0x00000024   Code   RO          972    i.RCC_PLLConfig     stm32f4xx_rcc.o
    0x08001734   0x08001734   0x0000000c   Code   RO          977    i.RCC_RTCCLKCmd     stm32f4xx_rcc.o
    0x08001740   0x08001740   0x00000030   Code   RO          978    i.RCC_RTCCLKConfig  stm32f4xx_rcc.o
    0x08001770   0x08001770   0x00000014   Code   RO          983    i.RCC_SYSCLKConfig  stm32f4xx_rcc.o
    0x08001784   0x08001784   0x00000030   Code   RO          985    i.RCC_WaitForHSEStartUp  stm32f4xx_rcc.o
    0x080017b4   0x080017b4   0x00000020   Code   RO         1269    i.RNG_Cmd           stm32f4xx_rng.o
    0x080017d4   0x080017d4   0x00000014   Code   RO         1271    i.RNG_GetFlagStatus  stm32f4xx_rng.o
    0x080017e8   0x080017e8   0x00000064   Code   RO         3269    i.RNG_Init          sys.o
    0x0800184c   0x0800184c   0x00000040   Code   RO         3158    i.RTC_Alarm_IRQHandler  rtc.o
    0x0800188c   0x0800188c   0x00000012   Code   RO         1332    i.RTC_Bcd2ToByte    stm32f4xx_rtc.o
    0x0800189e   0x0800189e   0x00000018   Code   RO         1334    i.RTC_ByteToBcd2    stm32f4xx_rtc.o
    0x080018b6   0x080018b6   0x00000002   PAD
    0x080018b8   0x080018b8   0x0000001c   Code   RO         1337    i.RTC_ClearFlag     stm32f4xx_rtc.o
    0x080018d4   0x080018d4   0x00000044   Code   RO         1344    i.RTC_EnterInitMode  stm32f4xx_rtc.o
    0x08001918   0x08001918   0x00000010   Code   RO         1345    i.RTC_ExitInitMode  stm32f4xx_rtc.o
    0x08001928   0x08001928   0x00000048   Code   RO         1348    i.RTC_GetDate       stm32f4xx_rtc.o
    0x08001970   0x08001970   0x0000001c   Code   RO         1349    i.RTC_GetFlagStatus  stm32f4xx_rtc.o
    0x0800198c   0x0800198c   0x0000004c   Code   RO         1353    i.RTC_GetTime       stm32f4xx_rtc.o
    0x080019d8   0x080019d8   0x00000050   Code   RO         1358    i.RTC_Init          stm32f4xx_rtc.o
    0x08001a28   0x08001a28   0x00000014   Code   RO         1361    i.RTC_ReadBackupRegister  stm32f4xx_rtc.o
    0x08001a3c   0x08001a3c   0x000000a4   Code   RO         1364    i.RTC_SetDate       stm32f4xx_rtc.o
    0x08001ae0   0x08001ae0   0x000000a8   Code   RO         1365    i.RTC_SetTime       stm32f4xx_rtc.o
    0x08001b88   0x08001b88   0x0000001c   Code   RO         3160    i.RTC_Set_Date      rtc.o
    0x08001ba4   0x08001ba4   0x0000001c   Code   RO         3161    i.RTC_Set_Time      rtc.o
    0x08001bc0   0x08001bc0   0x00000048   Code   RO         3164    i.RTC_WKUP_IRQHandler  rtc.o
    0x08001c08   0x08001c08   0x0000004c   Code   RO         1381    i.RTC_WaitForSynchro  stm32f4xx_rtc.o
    0x08001c54   0x08001c54   0x00000014   Code   RO         1384    i.RTC_WriteBackupRegister  stm32f4xx_rtc.o
    0x08001c68   0x08001c68   0x0000000c   Code   RO         2716    i.SDIO_ClearFlag    stm32f4xx_sdio.o
    0x08001c74   0x08001c74   0x00000014   Code   RO         2728    i.SDIO_GetFlagStatus  stm32f4xx_sdio.o
    0x08001c88   0x08001c88   0x00000004   Code   RO         3463    i.SDIO_IRQHandler   sdio_sdcard.o
    0x08001c8c   0x08001c8c   0x00000028   Code   RO         2736    i.SDIO_SendCommand  stm32f4xx_sdio.o
    0x08001cb4   0x08001cb4   0x000000f4   Code   RO         3473    i.SD_ProcessIRQSrc  sdio_sdcard.o
    0x08001da8   0x08001da8   0x00000034   Code   RO         3232    i.SPI1_ReadWriteByte  spi.o
    0x08001ddc   0x08001ddc   0x00000018   Code   RO         1689    i.SPI_Cmd           stm32f4xx_spi.o
    0x08001df4   0x08001df4   0x0000000e   Code   RO         1697    i.SPI_I2S_GetFlagStatus  stm32f4xx_spi.o
    0x08001e02   0x08001e02   0x00000004   Code   RO         1700    i.SPI_I2S_ReceiveData  stm32f4xx_spi.o
    0x08001e06   0x08001e06   0x00000004   Code   RO         1701    i.SPI_I2S_SendData  stm32f4xx_spi.o
    0x08001e0a   0x08001e0a   0x00000038   Code   RO         1702    i.SPI_Init          stm32f4xx_spi.o
    0x08001e42   0x08001e42   0x00000002   Code   RO          200    i.SVC_Handler       stm32f4xx_it.o
    0x08001e44   0x08001e44   0x0000002c   Code   RO         1850    i.SYSCFG_EXTILineConfig  stm32f4xx_syscfg.o
    0x08001e70   0x08001e70   0x0000001c   Code   RO         4991    i.Send_message      view.o
    0x08001e8c   0x08001e8c   0x000000b8   Code   RO          285    i.SetSysClock       system_stm32f4xx.o
    0x08001f44   0x08001f44   0x00000068   Code   RO         4947    i.Setup_show        setupview.o
    0x08001fac   0x08001fac   0x00000018   Code   RO         4948    i.Setupview_create  setupview.o
    0x08001fc4   0x08001fc4   0x00000028   Code   RO         4949    i.Setupview_process  setupview.o
    0x08001fec   0x08001fec   0x00000040   Code   RO         2911    i.SysTick_Handler   clk_timer.o
    0x0800202c   0x0800202c   0x00000040   Code   RO         2912    i.SysTick_init      clk_timer.o
    0x0800206c   0x0800206c   0x0000005c   Code   RO          287    i.SystemInit        system_stm32f4xx.o
    0x080020c8   0x080020c8   0x00000058   Code   RO         4865    i.Touch_process     homeview.o
    0x08002120   0x08002120   0x00000044   Code   RO         4908    i.Touch_process     popout.o
    0x08002164   0x08002164   0x00000050   Code   RO         4950    i.Touch_process     setupview.o
    0x080021b4   0x080021b4   0x00000080   Code   RO         3321    i.USART1_IRQHandler  usart.o
    0x08002234   0x08002234   0x00000018   Code   RO         2469    i.USART_Cmd         stm32f4xx_usart.o
    0x0800224c   0x0800224c   0x0000000e   Code   RO         2472    i.USART_GetFlagStatus  stm32f4xx_usart.o
    0x0800225a   0x0800225a   0x00000040   Code   RO         2473    i.USART_GetITStatus  stm32f4xx_usart.o
    0x0800229a   0x0800229a   0x00000036   Code   RO         2475    i.USART_ITConfig    stm32f4xx_usart.o
    0x080022d0   0x080022d0   0x000000bc   Code   RO         2476    i.USART_Init        stm32f4xx_usart.o
    0x0800238c   0x0800238c   0x00000008   Code   RO         2483    i.USART_ReceiveData  stm32f4xx_usart.o
    0x08002394   0x08002394   0x00000008   Code   RO         2486    i.USART_SendData    stm32f4xx_usart.o
    0x0800239c   0x0800239c   0x00000002   Code   RO          201    i.UsageFault_Handler  stm32f4xx_it.o
    0x0800239e   0x0800239e   0x00000018   Code   RO         3322    i.Usart_SendByte    usart.o
    0x080023b6   0x080023b6   0x00000026   Code   RO         3323    i.Usart_SendString  usart.o
    0x080023dc   0x080023dc   0x00000020   Code   RO         4992    i.View_create       view.o
    0x080023fc   0x080023fc   0x0000001c   Code   RO         4993    i.View_destroy      view.o
    0x08002418   0x08002418   0x00000006   Code   RO         4994    i.View_init         view.o
    0x0800241e   0x0800241e   0x00000002   PAD
    0x08002420   0x08002420   0x00000030   Code   RO         4995    i.View_switch       view.o
    0x08002450   0x08002450   0x0000005c   Code   RO         3955    i.W25QXX_Init       w25q16.o
    0x080024ac   0x080024ac   0x00000050   Code   RO         3958    i.W25QXX_ReadID     w25q16.o
    0x080024fc   0x080024fc   0x0000000c   Code   RO         2653    i.WWDG_ClearFlag    stm32f4xx_wwdg.o
    0x08002508   0x08002508   0x00000018   Code   RO         2654    i.WWDG_DeInit       stm32f4xx_wwdg.o
    0x08002520   0x08002520   0x00000020   Code   RO         3418    i.WWDG_IRQHandler   wwdg.o
    0x08002540   0x08002540   0x00000010   Code   RO         2658    i.WWDG_SetCounter   stm32f4xx_wwdg.o
    0x08002550   0x08002550   0x00000006   Code   RO         3420    i.WWDG_feed         wwdg.o
    0x08002556   0x08002556   0x00000002   Code   RO         3324    i._sys_exit         usart.o
    0x08002558   0x08002558   0x00000034   Code   RO         2913    i.check_runout      clk_timer.o
    0x0800258c   0x0800258c   0x0000000c   Code   RO         2914    i.check_tick        clk_timer.o
    0x08002598   0x08002598   0x0000002c   Code   RO         2915    i.check_timeout     clk_timer.o
    0x080025c4   0x080025c4   0x00000070   Code   RO         3827    i.command_handler   mon.o
    0x08002634   0x08002634   0x0000001c   Code   RO         2916    i.deal_overflow     clk_timer.o
    0x08002650   0x08002650   0x0000001c   Code   RO         2917    i.delay_ms          clk_timer.o
    0x0800266c   0x0800266c   0x0000000c   Code   RO         2918    i.delay_us          clk_timer.o
    0x08002678   0x08002678   0x000000c4   Code   RO         3233    i.flash_spi_init    spi.o
    0x0800273c   0x0800273c   0x00000014   Code   RO         3326    i.fputc             usart.o
    0x08002750   0x08002750   0x0000001c   Code   RO         3327    i.get_mon_buf       usart.o
    0x0800276c   0x0800276c   0x00000040   Code   RO         3165    i.get_time          rtc.o
    0x080027ac   0x080027ac   0x00000068   Code   RO         3058    i.gpio_init         gpio.o
    0x08002814   0x08002814   0x0000000c   Code   RO         3059    i.gpio_out          gpio.o
    0x08002820   0x08002820   0x0000006c   Code   RO         4866    i.home_show         homeview.o
    0x0800288c   0x0800288c   0x00000008   Code   RO         2921    i.insert_execute    clk_timer.o
    0x08002894   0x08002894   0x0000006c   Code   RO         2922    i.insert_task       clk_timer.o
    0x08002900   0x08002900   0x0000009c   Code   RO         2923    i.insert_task_list  clk_timer.o
    0x0800299c   0x0800299c   0x0000001c   Code   RO         2924    i.insert_task_tail  clk_timer.o
    0x080029b8   0x080029b8   0x0000003c   Code   RO         3060    i.io_interrupt_init  gpio.o
    0x080029f4   0x080029f4   0x00000088   Code   RO         3737    i.key0_task         keyboard_driver.o
    0x08002a7c   0x08002a7c   0x00000088   Code   RO         3738    i.key1_task         keyboard_driver.o
    0x08002b04   0x08002b04   0x00000044   Code   RO         3739    i.key_init          keyboard_driver.o
    0x08002b48   0x08002b48   0x00000018   Code   RO         3741    i.key_task_init     keyboard_driver.o
    0x08002b60   0x08002b60   0x000010ac   Code   RO         4574    i.lcd_soft_init     lcd.o
    0x08003c0c   0x08003c0c   0x0000005c   Code   RO            3    i.main              main.o
    0x08003c68   0x08003c68   0x00000010   Code   RO         3329    i.mon_flag_rw       usart.o
    0x08003c78   0x08003c78   0x00000018   Code   RO         2925    i.ms_10             clk_timer.o
    0x08003c90   0x08003c90   0x00000018   Code   RO         2926    i.ms_100            clk_timer.o
    0x08003ca8   0x08003ca8   0x00000090   Code   RO         3117    i.my_free           head.o
    0x08003d38   0x08003d38   0x0000003c   Code   RO         3118    i.my_head_init      head.o
    0x08003d74   0x08003d74   0x0000007c   Code   RO         3119    i.my_malloc         head.o
    0x08003df0   0x08003df0   0x00000034   Code   RO         2927    i.polling           clk_timer.o
    0x08003e24   0x08003e24   0x0000000c   Code   RO         3330    i.reset_data        usart.o
    0x08003e30   0x08003e30   0x0000000c   Code   RO         3331    i.reset_mon_buf     usart.o
    0x08003e3c   0x08003e3c   0x00000088   Code   RO         3166    i.rtc_init          rtc.o
    0x08003ec4   0x08003ec4   0x00000068   Code   RO         3828    i.search_arg        mon.o
    0x08003f2c   0x08003f2c   0x00000040   Code   RO         3829    i.search_command    mon.o
    0x08003f6c   0x08003f6c   0x00000020   Code   RO         3830    i.search_len        mon.o
    0x08003f8c   0x08003f8c   0x00000044   Code   RO         3831    i.send_touch        mon.o
    0x08003fd0   0x08003fd0   0x0000003c   Code   RO            4    i.sys_init          main.o
    0x0800400c   0x0800400c   0x00000004   Code   RO            5    i.task_init         main.o
    0x08004010   0x08004010   0x00000070   Code   RO         3833    i.timer_test        mon.o
    0x08004080   0x08004080   0x00000020   Code   RO         3834    i.timer_test_func   mon.o
    0x080040a0   0x080040a0   0x00000054   Code   RO         3835    i.to_int            mon.o
    0x080040f4   0x080040f4   0x0000000a   Code   RO         5269    x$fpl$fpinit        fz_wm.l(fpinit.o)
    0x080040fe   0x080040fe   0x000017c0   Data   RO         4577    .constdata          lcd.o
    0x080058be   0x080058be   0x00000002   PAD
    0x080058c0   0x080058c0   0x00000020   Data   RO         4867    .constdata          homeview.o
    0x080058e0   0x080058e0   0x00000010   Data   RO         4909    .constdata          popout.o
    0x080058f0   0x080058f0   0x00000020   Data   RO         4951    .constdata          setupview.o
    0x08005910   0x08005910   0x0000000c   Data   RO         4998    .constdata          view.o
    0x0800591c   0x0800591c   0x00000028   Data   RO         5072    .constdata          c_w.l(_printf_hex_int.o)
    0x08005944   0x08005944   0x0000001f   Data   RO         3836    .conststring        mon.o
    0x08005963   0x08005963   0x00000001   PAD
    0x08005964   0x08005964   0x00000020   Data   RO         5325    Region$$Table       anon$$obj.o


    Execution Region RW_IRAM1 (Exec base: 0x20000000, Load base: 0x08005984, Size: 0x00001698, Max: 0x00020000, ABSOLUTE, COMPRESSED[0x00000088])

    Exec Addr    Load Addr    Size         Type   Attr      Idx    E Section Name        Object

    0x20000000   COMPRESSED   0x00000014   Data   RW          288    .data               system_stm32f4xx.o
    0x20000014   COMPRESSED   0x00000010   Data   RW          986    .data               stm32f4xx_rcc.o
    0x20000024   COMPRESSED   0x0000002c   Data   RW         2930    .data               clk_timer.o
    0x20000050   COMPRESSED   0x00000008   Data   RW         3062    .data               gpio.o
    0x20000058   COMPRESSED   0x00000044   Data   RW         3121    .data               head.o
    0x2000009c   COMPRESSED   0x00000010   Data   RW         3122    .data               head.o
    0x200000ac   COMPRESSED   0x00000004   Data   RW         3333    .data               usart.o
    0x200000b0   COMPRESSED   0x00000010   Data   RW         3486    .data               sdio_sdcard.o
    0x200000c0   COMPRESSED   0x00000030   Data   RW         3742    .data               keyboard_driver.o
    0x200000f0   COMPRESSED   0x0000002c   Data   RW         3837    .data               mon.o
    0x2000011c   COMPRESSED   0x00000002   Data   RW         3969    .data               w25q16.o
    0x2000011e   COMPRESSED   0x00000004   Data   RW         4578    .data               lcd.o
    0x20000122   COMPRESSED   0x00000002   PAD
    0x20000124   COMPRESSED   0x00000008   Data   RW         4999    .data               view.o
    0x2000012c        -       0x00000020   Zero   RW         2929    .bss                clk_timer.o
    0x2000014c        -       0x00000018   Zero   RW         3061    .bss                gpio.o
    0x20000164        -       0x00000bac   Zero   RW         3120    .bss                head.o
    0x20000d10        -       0x00000048   Zero   RW         3332    .bss                usart.o
    0x20000d58        -       0x000002c0   Zero   RW         3485    .bss                sdio_sdcard.o
    0x20001018        -       0x0000000e   Zero   RW         4576    .bss                lcd.o
    0x20001026   COMPRESSED   0x00000002   PAD
    0x20001028        -       0x0000000c   Zero   RW         4997    .bss                view.o
    0x20001034        -       0x00000060   Zero   RW         5201    .bss                c_w.l(libspace.o)
    0x20001094   COMPRESSED   0x00000004   PAD
    0x20001098        -       0x00000200   Zero   RW          321    HEAP                startup_stm32f40_41xxx.o
    0x20001298        -       0x00000400   Zero   RW          320    STACK               startup_stm32f40_41xxx.o


==============================================================================

Image component sizes


      Code (inc. data)   RO Data    RW Data    ZI Data      Debug   Object Name

       920        164          0         44         32      37522   clk_timer.o
       252         44          0          8         24       4120   gpio.o
       392        114          0         84       2988       3792   head.o
       260         24         32          0          0       2965   homeview.o
       364        118          0         48          0       3193   keyboard_driver.o
      5724        144       6080          4         14      14499   lcd.o
       126         14          0          0          0       2303   led_driver.o
       156         44          0          0          0     309644   main.o
       124         16          0          0          0     232979   misc.o
       720        202         31         44          0       8008   mon.o
       192         22         16          0          0       2859   popout.o
       392         38          0          0          0       3957   rtc.o
       340         22          0         16        704      11438   sdio_sdcard.o
       248         18         32          0          0       2948   setupview.o
       248         16          0          0          0       2868   spi.o
        64         26        392          0       1536        828   startup_stm32f40_41xxx.o
       128         12          0          0          0       1557   stm32f4xx_exti.o
       238          6          0          0          0       1841   stm32f4xx_fsmc.o
       178          0          0          0          0       3443   stm32f4xx_gpio.o
        16          0          0          0          0       3452   stm32f4xx_it.o
        12          6          0          0          0        514   stm32f4xx_pwr.o
       712        122          0         16          0      14469   stm32f4xx_rcc.o
        52         10          0          0          0       1118   stm32f4xx_rng.o
       858         74          0          0          0       9682   stm32f4xx_rtc.o
        72         14          0          0          0       3493   stm32f4xx_sdio.o
       102          0          0          0          0       3446   stm32f4xx_spi.o
        44          6          0          0          0        648   stm32f4xx_syscfg.o
       360          8          0          0          0       5653   stm32f4xx_usart.o
        52         10          0          0          0       1469   stm32f4xx_wwdg.o
       100         32          0          0          0        615   sys.o
       276         34          0         20          0       1681   system_stm32f4xx.o
       462         48          0          4         72       7836   usart.o
       142         32         12          8         12       3228   view.o
       172         36          0          2          0       1790   w25q16.o
        38         16          0          0          0        918   wwdg.o

    ----------------------------------------------------------------------
     14548       1492       6630        300       5384     710776   Object Totals
         0          0         32          0          0          0   (incl. Generated)
        12          0          3          2          2          0   (incl. Padding)

    ----------------------------------------------------------------------

      Code (inc. data)   RO Data    RW Data    ZI Data      Debug   Library Member Name

        90          0          0          0          0          0   __dczerorl2.o
         8          0          0          0          0         68   __main.o
       104          0          0          0          0         84   __printf.o
         0          0          0          0          0          0   __rtentry.o
        12          0          0          0          0          0   __rtentry2.o
         6          0          0          0          0          0   __rtentry4.o
        52          8          0          0          0          0   __scatter.o
        28          0          0          0          0          0   __scatter_zi.o
        44          0          0          0          0        108   _printf_char.o
        48          6          0          0          0         96   _printf_char_common.o
        36          4          0          0          0         80   _printf_char_file.o
         6          0          0          0          0          0   _printf_d.o
       120         16          0          0          0         92   _printf_dec.o
        88          4         40          0          0         88   _printf_hex_int.o
       178          0          0          0          0         88   _printf_intcommon.o
         0          0          0          0          0          0   _printf_percent.o
         4          0          0          0          0          0   _printf_percent_end.o
         6          0          0          0          0          0   _printf_s.o
        82          0          0          0          0         80   _printf_str.o
         6          0          0          0          0          0   _printf_x.o
        18          0          0          0          0         80   exit.o
         8          0          0          0          0         68   ferror.o
         6          0          0          0          0        152   heapauxi.o
         2          0          0          0          0          0   libinit.o
         6          0          0          0          0          0   libinit2.o
         2          0          0          0          0          0   libshutdown.o
         2          0          0          0          0          0   libshutdown2.o
         8          4          0          0         96         68   libspace.o
        24          4          0          0          0         84   noretval__2printf.o
        68          0          0          0          0         68   rt_memclr.o
        78          0          0          0          0         80   rt_memclr_w.o
       138          0          0          0          0         68   rt_memcpy_v6.o
       100          0          0          0          0         80   rt_memcpy_w.o
         2          0          0          0          0          0   rtexit.o
        10          0          0          0          0          0   rtexit2.o
        62          0          0          0          0         76   strlen.o
       150          0          0          0          0         80   strncmp.o
        74          0          0          0          0         80   sys_stackheap_outer.o
         2          0          0          0          0         68   use_no_semi.o
         2          0          0          0          0         68   use_no_semi_2.o
        10          0          0          0          0        116   fpinit.o

    ----------------------------------------------------------------------
      1698         46         40          0        100       2020   Library Totals
         8          0          0          0          4          0   (incl. Padding)

    ----------------------------------------------------------------------

      Code (inc. data)   RO Data    RW Data    ZI Data      Debug   Library Name

      1680         46         40          0         96       1904   c_w.l
        10          0          0          0          0        116   fz_wm.l

    ----------------------------------------------------------------------
      1698         46         40          0        100       2020   Library Totals

    ----------------------------------------------------------------------

==============================================================================


      Code (inc. data)   RO Data    RW Data    ZI Data      Debug   

     16246       1538       6670        300       5484     694308   Grand Totals
     16246       1538       6670        136       5484     694308   ELF Image Totals (compressed)
     16246       1538       6670        136          0          0   ROM Totals

==============================================================================

    Total RO  Size (Code + RO Data)                22916 (  22.38kB)
    Total RW  Size (RW Data + ZI Data)              5784 (   5.65kB)
    Total ROM Size (Code + RO Data + RW Data)      23052 (  22.51kB)

==============================================================================

